Archive member included to satisfy reference by file (symbol)

/opt/devkitpro/libnds/lib/libfilesystem.a(nitrofs.o)
                              ../menu/src/Main.o (nitroFSInit)
/opt/devkitpro/libnds/lib/libfat.a(libfat.o)
                              /opt/devkitpro/libnds/lib/libfilesystem.a(nitrofs.o) (fatInitDefault)
/opt/devkitpro/libnds/lib/libfat.a(disc.o)
                              /opt/devkitpro/libnds/lib/libfat.a(libfat.o) (_FAT_disc_interfaces)
/opt/devkitpro/libnds/lib/libfat.a(fatfile.o)
                              /opt/devkitpro/libnds/lib/libfat.a(libfat.o) (_FAT_open_r)
/opt/devkitpro/libnds/lib/libfat.a(cache.o)
                              /opt/devkitpro/libnds/lib/libfat.a(fatfile.o) (_FAT_cache_readSectors)
/opt/devkitpro/libnds/lib/libfat.a(fatdir.o)
                              /opt/devkitpro/libnds/lib/libfat.a(libfat.o) (_FAT_stat_r)
/opt/devkitpro/libnds/lib/libfat.a(directory.o)
                              /opt/devkitpro/libnds/lib/libfat.a(fatfile.o) (_FAT_directory_entryGetCluster)
/opt/devkitpro/libnds/lib/libfat.a(partition.o)
                              /opt/devkitpro/libnds/lib/libfat.a(libfat.o) (_FAT_partition_destructor)
/opt/devkitpro/libnds/lib/libfat.a(lock.o)
                              /opt/devkitpro/libnds/lib/libfat.a(partition.o) (_FAT_lock_init)
/opt/devkitpro/libnds/lib/libfat.a(filetime.o)
                              /opt/devkitpro/libnds/lib/libfat.a(fatfile.o) (_FAT_filetime_getTimeFromRTC)
/opt/devkitpro/libnds/lib/libfat.a(file_allocation_table.o)
                              /opt/devkitpro/libnds/lib/libfat.a(fatfile.o) (_FAT_fat_nextCluster)
/opt/devkitpro/libnds/lib/libnds9.a(dynamicArray.o)
                              ../GL1Common/Renderer_RasterizationGL1.o (DynamicArrayGet)
/opt/devkitpro/libnds/lib/libnds9.a(videoGL.o)
                              ../base3d/src/nitro/NitroGLRenderer.o (glInit_C)
/opt/devkitpro/libnds/lib/libnds9.a(keys.o)
                              ../base3d/src/nitro/NitroGLRenderer.o (scanKeys)
/opt/devkitpro/libnds/lib/libnds9.a(dldi.o)
                              /opt/devkitpro/libnds/lib/libfat.a(disc.o) (dldiGetInternal)
/opt/devkitpro/libnds/lib/libnds9.a(initSystem.o)
                              /opt/devkitpro/devkitARM/bin/../lib/gcc/arm-none-eabi/12.2.0/../../../../arm-none-eabi/lib/ds_arm9_crt0.o (initSystem)
/opt/devkitpro/libnds/lib/libnds9.a(securearea.o)
                              /opt/devkitpro/devkitARM/bin/../lib/gcc/arm-none-eabi/12.2.0/../../../../arm-none-eabi/lib/ds_arm9_crt0.o (__secure_area__)
/opt/devkitpro/libnds/lib/libnds9.a(interrupts.o)
                              /opt/devkitpro/libnds/lib/libnds9.a(initSystem.o) (irqInit)
/opt/devkitpro/libnds/lib/libnds9.a(libnds_exit.arm.o)
                              /opt/devkitpro/devkitARM/bin/../lib/gcc/arm-none-eabi/12.2.0/../../../../arm-none-eabi/lib/ds_arm9_crt0.o (__libnds_exit)
/opt/devkitpro/libnds/lib/libnds9.a(card.o)
                              /opt/devkitpro/libnds/lib/libfilesystem.a(nitrofs.o) (cardParamCommand)
/opt/devkitpro/libnds/lib/libnds9.a(fifosystem.o)
                              /opt/devkitpro/libnds/lib/libnds9.a(initSystem.o) (fifoSetValue32Handler)
/opt/devkitpro/libnds/lib/libnds9.a(dldi_stub.o)
                              /opt/devkitpro/libnds/lib/libnds9.a(dldi.o) (_io_dldi_stub)
/opt/devkitpro/libnds/lib/libnds9.a(mpu_setup.o)
                              /opt/devkitpro/devkitARM/bin/../lib/gcc/arm-none-eabi/12.2.0/../../../../arm-none-eabi/lib/ds_arm9_crt0.o (__libnds_mpu_setup)
/opt/devkitpro/libnds/lib/libnds9.a(IntrWait.o)
                              ../base3d/src/nitro/NitroGLRenderer.o (swiWaitForVBlank)
/opt/devkitpro/libnds/lib/libnds9.a(cpu_clock.o)
                              /opt/devkitpro/libnds/lib/libnds9.a(initSystem.o) (setCpuClock)
/opt/devkitpro/libnds/lib/libnds9.a(interruptDispatcher.o)
                              /opt/devkitpro/libnds/lib/libnds9.a(interrupts.o) (IntrMain)
/opt/devkitpro/libnds/lib/libnds9.a(biosCalls.o)
                              /opt/devkitpro/libnds/lib/libnds9.a(card.o) (swiDelay)
/opt/devkitpro/libnds/lib/libnds9.a(swiSoftReset.o)
                              /opt/devkitpro/libnds/lib/libnds9.a(fifosystem.o) (swiSoftReset)
/opt/devkitpro/libnds/lib/libnds9.a(trig.o)
                              /opt/devkitpro/libnds/lib/libnds9.a(videoGL.o) (sinLerp)
/opt/devkitpro/libnds/lib/libnds9.a(video.o)
                              /opt/devkitpro/libnds/lib/libnds9.a(videoGL.o) (vramSetBanks_EFG)
/opt/devkitpro/libnds/lib/libnds9.a(system.o)
                              /opt/devkitpro/libnds/lib/libnds9.a(initSystem.o) (systemValueHandler)
/opt/devkitpro/libnds/lib/libnds9.a(sd.twl.o)
                              /opt/devkitpro/libnds/lib/libnds9.a(dldi.o) (__io_dsisd)
/opt/devkitpro/libnds/lib/libnds9.a(dcache.o)
                              /opt/devkitpro/libnds/lib/libnds9.a(sd.twl.o) (DC_FlushRange)
/opt/devkitpro/devkitARM/bin/../lib/gcc/arm-none-eabi/12.2.0/libgcc.a(_arm_mulsf3.o)
                              ../menu/src/Crawler.o (__aeabi_fmul)
/opt/devkitpro/devkitARM/bin/../lib/gcc/arm-none-eabi/12.2.0/libgcc.a(_udivsi3.o)
                              ../GL1Common/Renderer_RasterizationGL1.o (__aeabi_uidiv)
/opt/devkitpro/devkitARM/bin/../lib/gcc/arm-none-eabi/12.2.0/libgcc.a(_divsi3.o)
                              /opt/devkitpro/libnds/lib/libfat.a(fatfile.o) (__aeabi_idiv)
/opt/devkitpro/devkitARM/bin/../lib/gcc/arm-none-eabi/12.2.0/libgcc.a(_dvmd_tls.o)
                              /opt/devkitpro/devkitARM/bin/../lib/gcc/arm-none-eabi/12.2.0/libgcc.a(_udivsi3.o) (__aeabi_idiv0)
/opt/devkitpro/devkitARM/bin/../lib/gcc/arm-none-eabi/12.2.0/libgcc.a(_arm_addsubsf3.o)
                              ../GL1Common/Renderer_RasterizationGL1.o (__aeabi_fsub)
/opt/devkitpro/devkitARM/bin/../lib/gcc/arm-none-eabi/12.2.0/libgcc.a(_arm_muldivsf3.o)
                              ../GL1Common/Renderer_RasterizationGL1.o (__aeabi_fdiv)
/opt/devkitpro/devkitARM/bin/../lib/gcc/arm-none-eabi/12.2.0/libgcc.a(_arm_fixsfsi.o)
                              ../menu/src/Crawler.o (__aeabi_f2iz)
/opt/devkitpro/devkitARM/bin/../lib/gcc/arm-none-eabi/12.2.0/libgcc.a(_arm_fixunssfsi.o)
                              ../GL1Common/Renderer_RasterizationGL1.o (__aeabi_f2uiz)
/opt/devkitpro/devkitARM/bin/../lib/gcc/arm-none-eabi/12.2.0/libgcc.a(_aeabi_ldivmod.o)
                              ../GL1Common/LoadBitmapGL1.o (__aeabi_ldivmod)
/opt/devkitpro/devkitARM/bin/../lib/gcc/arm-none-eabi/12.2.0/libgcc.a(_muldi3.o)
                              /opt/devkitpro/libnds/lib/libfat.a(partition.o) (__aeabi_lmul)
/opt/devkitpro/devkitARM/bin/../lib/gcc/arm-none-eabi/12.2.0/libgcc.a(_udivmoddi4.o)
                              /opt/devkitpro/devkitARM/bin/../lib/gcc/arm-none-eabi/12.2.0/libgcc.a(_aeabi_ldivmod.o) (__udivmoddi4)
/opt/devkitpro/devkitARM/bin/../lib/gcc/arm-none-eabi/12.2.0/libgcc.a(_clzdi2.o)
                              /opt/devkitpro/devkitARM/bin/../lib/gcc/arm-none-eabi/12.2.0/libgcc.a(_udivmoddi4.o) (__clzdi2)
/opt/devkitpro/devkitARM/bin/../lib/gcc/arm-none-eabi/12.2.0/libgcc.a(_clzsi2.o)
                              /opt/devkitpro/devkitARM/bin/../lib/gcc/arm-none-eabi/12.2.0/libgcc.a(_clzdi2.o) (__clzsi2)
/opt/devkitpro/devkitARM/bin/../lib/gcc/arm-none-eabi/12.2.0/../../../../arm-none-eabi/lib/libg.a(lib_a-assert.o)
                              ../GL1Common/LoadBitmapGL1.o (__assert_func)
/opt/devkitpro/devkitARM/bin/../lib/gcc/arm-none-eabi/12.2.0/../../../../arm-none-eabi/lib/libg.a(lib_a-atoi.o)
                              ../../core/src/Core.o (atoi)
/opt/devkitpro/devkitARM/bin/../lib/gcc/arm-none-eabi/12.2.0/../../../../arm-none-eabi/lib/libg.a(lib_a-bsearch.o)
                              /opt/devkitpro/libnds/lib/libnds9.a(trig.o) (bsearch)
/opt/devkitpro/devkitARM/bin/../lib/gcc/arm-none-eabi/12.2.0/../../../../arm-none-eabi/lib/libg.a(lib_a-calloc.o)
                              ../base3d/src/CTile3DProperties.o (calloc)
/opt/devkitpro/devkitARM/bin/../lib/gcc/arm-none-eabi/12.2.0/../../../../arm-none-eabi/lib/libg.a(lib_a-callocr.o)
                              /opt/devkitpro/devkitARM/bin/../lib/gcc/arm-none-eabi/12.2.0/../../../../arm-none-eabi/lib/libg.a(lib_a-calloc.o) (_calloc_r)
/opt/devkitpro/devkitARM/bin/../lib/gcc/arm-none-eabi/12.2.0/../../../../arm-none-eabi/lib/libg.a(lib_a-ctype_.o)
                              /opt/devkitpro/libnds/lib/libfat.a(directory.o) (_ctype_)
/opt/devkitpro/devkitARM/bin/../lib/gcc/arm-none-eabi/12.2.0/../../../../arm-none-eabi/lib/libg.a(lib_a-errno.o)
                              /opt/devkitpro/devkitARM/bin/../lib/gcc/arm-none-eabi/12.2.0/../../../../arm-none-eabi/lib/libg.a(lib_a-callocr.o) (__errno)
/opt/devkitpro/devkitARM/bin/../lib/gcc/arm-none-eabi/12.2.0/../../../../arm-none-eabi/lib/libg.a(lib_a-exit.o)
                              ../../common/src/PackedFileReader.o (exit)
/opt/devkitpro/devkitARM/bin/../lib/gcc/arm-none-eabi/12.2.0/../../../../arm-none-eabi/lib/libg.a(lib_a-fclose.o)
                              ../../common/src/PackedFileReader.o (fclose)
/opt/devkitpro/devkitARM/bin/../lib/gcc/arm-none-eabi/12.2.0/../../../../arm-none-eabi/lib/libg.a(lib_a-fflush.o)
                              /opt/devkitpro/devkitARM/bin/../lib/gcc/arm-none-eabi/12.2.0/../../../../arm-none-eabi/lib/libg.a(lib_a-fclose.o) (__sflush_r)
/opt/devkitpro/devkitARM/bin/../lib/gcc/arm-none-eabi/12.2.0/../../../../arm-none-eabi/lib/libg.a(lib_a-findfp.o)
                              /opt/devkitpro/devkitARM/bin/../lib/gcc/arm-none-eabi/12.2.0/../../../../arm-none-eabi/lib/libg.a(lib_a-fclose.o) (__sinit)
/opt/devkitpro/devkitARM/bin/../lib/gcc/arm-none-eabi/12.2.0/../../../../arm-none-eabi/lib/libg.a(lib_a-fiprintf.o)
                              /opt/devkitpro/devkitARM/bin/../lib/gcc/arm-none-eabi/12.2.0/../../../../arm-none-eabi/lib/libg.a(lib_a-assert.o) (fiprintf)
/opt/devkitpro/devkitARM/bin/../lib/gcc/arm-none-eabi/12.2.0/../../../../arm-none-eabi/lib/libg.a(lib_a-fopen.o)
                              ../../common/src/PackedFileReader.o (fopen)
/opt/devkitpro/devkitARM/bin/../lib/gcc/arm-none-eabi/12.2.0/../../../../arm-none-eabi/lib/libg.a(lib_a-fread.o)
                              ../../common/src/PackedFileReader.o (fread)
/opt/devkitpro/devkitARM/bin/../lib/gcc/arm-none-eabi/12.2.0/../../../../arm-none-eabi/lib/libg.a(lib_a-freer.o)
                              /opt/devkitpro/devkitARM/bin/../lib/gcc/arm-none-eabi/12.2.0/../../../../arm-none-eabi/lib/libg.a(lib_a-fclose.o) (_free_r)
/opt/devkitpro/devkitARM/bin/../lib/gcc/arm-none-eabi/12.2.0/../../../../arm-none-eabi/lib/libg.a(lib_a-fseek.o)
                              /opt/devkitpro/devkitARM/bin/../lib/gcc/arm-none-eabi/12.2.0/../../../../arm-none-eabi/lib/libg.a(lib_a-fopen.o) (_fseek_r)
/opt/devkitpro/devkitARM/bin/../lib/gcc/arm-none-eabi/12.2.0/../../../../arm-none-eabi/lib/libg.a(lib_a-fseeko.o)
                              /opt/devkitpro/devkitARM/bin/../lib/gcc/arm-none-eabi/12.2.0/../../../../arm-none-eabi/lib/libg.a(lib_a-fseek.o) (_fseeko_r)
/opt/devkitpro/devkitARM/bin/../lib/gcc/arm-none-eabi/12.2.0/../../../../arm-none-eabi/lib/libg.a(lib_a-fwalk.o)
                              /opt/devkitpro/devkitARM/bin/../lib/gcc/arm-none-eabi/12.2.0/../../../../arm-none-eabi/lib/libg.a(lib_a-findfp.o) (_fwalk)
/opt/devkitpro/devkitARM/bin/../lib/gcc/arm-none-eabi/12.2.0/../../../../arm-none-eabi/lib/libg.a(lib_a-impure.o)
                              /opt/devkitpro/devkitARM/bin/../lib/gcc/arm-none-eabi/12.2.0/../../../../arm-none-eabi/lib/libg.a(lib_a-exit.o) (_global_impure_ptr)
/opt/devkitpro/devkitARM/bin/../lib/gcc/arm-none-eabi/12.2.0/../../../../arm-none-eabi/lib/libg.a(lib_a-init.o)
                              /opt/devkitpro/devkitARM/bin/../lib/gcc/arm-none-eabi/12.2.0/../../../../arm-none-eabi/lib/ds_arm9_crt0.o (__libc_init_array)
/opt/devkitpro/devkitARM/bin/../lib/gcc/arm-none-eabi/12.2.0/../../../../arm-none-eabi/lib/libg.a(lib_a-lcltime_r.o)
                              /opt/devkitpro/libnds/lib/libfat.a(filetime.o) (localtime_r)
/opt/devkitpro/devkitARM/bin/../lib/gcc/arm-none-eabi/12.2.0/../../../../arm-none-eabi/lib/libg.a(lib_a-locale.o)
                              /opt/devkitpro/libnds/lib/libfat.a(directory.o) (__locale_mb_cur_max)
/opt/devkitpro/devkitARM/bin/../lib/gcc/arm-none-eabi/12.2.0/../../../../arm-none-eabi/lib/libg.a(lib_a-makebuf.o)
                              /opt/devkitpro/devkitARM/bin/../lib/gcc/arm-none-eabi/12.2.0/../../../../arm-none-eabi/lib/libg.a(lib_a-fseeko.o) (__smakebuf_r)
/opt/devkitpro/devkitARM/bin/../lib/gcc/arm-none-eabi/12.2.0/../../../../arm-none-eabi/lib/libg.a(lib_a-malloc.o)
                              ../GL1Common/LoadBitmapGL1.o (malloc)
/opt/devkitpro/devkitARM/bin/../lib/gcc/arm-none-eabi/12.2.0/../../../../arm-none-eabi/lib/libg.a(lib_a-mallocr.o)
                              /opt/devkitpro/devkitARM/bin/../lib/gcc/arm-none-eabi/12.2.0/../../../../arm-none-eabi/lib/libg.a(lib_a-callocr.o) (_malloc_r)
/opt/devkitpro/devkitARM/bin/../lib/gcc/arm-none-eabi/12.2.0/../../../../arm-none-eabi/lib/libg.a(lib_a-mbrtowc.o)
                              /opt/devkitpro/libnds/lib/libfat.a(directory.o) (mbrtowc)
/opt/devkitpro/devkitARM/bin/../lib/gcc/arm-none-eabi/12.2.0/../../../../arm-none-eabi/lib/libg.a(lib_a-mbsrtowcs.o)
                              /opt/devkitpro/libnds/lib/libfat.a(directory.o) (mbsrtowcs)
/opt/devkitpro/devkitARM/bin/../lib/gcc/arm-none-eabi/12.2.0/../../../../arm-none-eabi/lib/libg.a(lib_a-mbtowc_r.o)
                              /opt/devkitpro/devkitARM/bin/../lib/gcc/arm-none-eabi/12.2.0/../../../../arm-none-eabi/lib/libg.a(lib_a-locale.o) (__ascii_mbtowc)
/opt/devkitpro/devkitARM/bin/../lib/gcc/arm-none-eabi/12.2.0/../../../../arm-none-eabi/lib/libg.a(lib_a-memcmp.o)
                              /opt/devkitpro/libnds/lib/libfat.a(partition.o) (memcmp)
/opt/devkitpro/devkitARM/bin/../lib/gcc/arm-none-eabi/12.2.0/../../../../arm-none-eabi/lib/libg.a(lib_a-memcpy-stub.o)
                              ../menu/src/HelpScreen.o (memcpy)
/opt/devkitpro/devkitARM/bin/../lib/gcc/arm-none-eabi/12.2.0/../../../../arm-none-eabi/lib/libg.a(lib_a-memmove.o)
                              /opt/devkitpro/libnds/lib/libfat.a(directory.o) (memmove)
/opt/devkitpro/devkitARM/bin/../lib/gcc/arm-none-eabi/12.2.0/../../../../arm-none-eabi/lib/libg.a(lib_a-memset.o)
                              ../menu/src/HelpScreen.o (memset)
/opt/devkitpro/devkitARM/bin/../lib/gcc/arm-none-eabi/12.2.0/../../../../arm-none-eabi/lib/libg.a(lib_a-mktime.o)
                              /opt/devkitpro/libnds/lib/libfat.a(filetime.o) (mktime)
/opt/devkitpro/devkitARM/bin/../lib/gcc/arm-none-eabi/12.2.0/../../../../arm-none-eabi/lib/libg.a(lib_a-mlock.o)
                              /opt/devkitpro/devkitARM/bin/../lib/gcc/arm-none-eabi/12.2.0/../../../../arm-none-eabi/lib/libg.a(lib_a-freer.o) (__malloc_lock)
/opt/devkitpro/devkitARM/bin/../lib/gcc/arm-none-eabi/12.2.0/../../../../arm-none-eabi/lib/libg.a(lib_a-month_lengths.o)
                              /opt/devkitpro/devkitARM/bin/../lib/gcc/arm-none-eabi/12.2.0/../../../../arm-none-eabi/lib/libg.a(lib_a-lcltime_r.o) (__month_lengths)
/opt/devkitpro/devkitARM/bin/../lib/gcc/arm-none-eabi/12.2.0/../../../../arm-none-eabi/lib/libg.a(lib_a-printf.o)
                              ../../common/src/PackedFileReader.o (printf)
/opt/devkitpro/devkitARM/bin/../lib/gcc/arm-none-eabi/12.2.0/../../../../arm-none-eabi/lib/libg.a(lib_a-realloc.o)
                              /opt/devkitpro/libnds/lib/libnds9.a(dynamicArray.o) (realloc)
/opt/devkitpro/devkitARM/bin/../lib/gcc/arm-none-eabi/12.2.0/../../../../arm-none-eabi/lib/libg.a(lib_a-reallocr.o)
                              /opt/devkitpro/devkitARM/bin/../lib/gcc/arm-none-eabi/12.2.0/../../../../arm-none-eabi/lib/libg.a(lib_a-realloc.o) (_realloc_r)
/opt/devkitpro/devkitARM/bin/../lib/gcc/arm-none-eabi/12.2.0/../../../../arm-none-eabi/lib/libg.a(lib_a-refill.o)
                              /opt/devkitpro/devkitARM/bin/../lib/gcc/arm-none-eabi/12.2.0/../../../../arm-none-eabi/lib/libg.a(lib_a-fread.o) (__srefill_r)
/opt/devkitpro/devkitARM/bin/../lib/gcc/arm-none-eabi/12.2.0/../../../../arm-none-eabi/lib/libg.a(lib_a-sprintf.o)
                              ../menu/src/MainMenu.o (sprintf)
/opt/devkitpro/devkitARM/bin/../lib/gcc/arm-none-eabi/12.2.0/../../../../arm-none-eabi/lib/libg.a(lib_a-stdio.o)
                              /opt/devkitpro/devkitARM/bin/../lib/gcc/arm-none-eabi/12.2.0/../../../../arm-none-eabi/lib/libg.a(lib_a-findfp.o) (__sread)
/opt/devkitpro/devkitARM/bin/../lib/gcc/arm-none-eabi/12.2.0/../../../../arm-none-eabi/lib/libg.a(lib_a-stpcpy.o)
                              /opt/devkitpro/libnds/lib/libfat.a(libfat.o) (stpcpy)
/opt/devkitpro/devkitARM/bin/../lib/gcc/arm-none-eabi/12.2.0/../../../../arm-none-eabi/lib/libg.a(lib_a-strcasecmp.o)
                              /opt/devkitpro/libnds/lib/libfilesystem.a(nitrofs.o) (strcasecmp)
/opt/devkitpro/devkitARM/bin/../lib/gcc/arm-none-eabi/12.2.0/../../../../arm-none-eabi/lib/libg.a(lib_a-strcat.o)
                              /opt/devkitpro/devkitARM/bin/../lib/gcc/arm-none-eabi/12.2.0/../../../../arm-none-eabi/lib/libg.a(lib_a-locale.o) (strcat)
/opt/devkitpro/devkitARM/bin/../lib/gcc/arm-none-eabi/12.2.0/../../../../arm-none-eabi/lib/libg.a(lib_a-strchr.o)
                              /opt/devkitpro/libnds/lib/libfilesystem.a(nitrofs.o) (strchr)
/opt/devkitpro/devkitARM/bin/../lib/gcc/arm-none-eabi/12.2.0/../../../../arm-none-eabi/lib/libg.a(lib_a-strcmp.o)
                              ../../common/src/PackedFileReader.o (strcmp)
/opt/devkitpro/devkitARM/bin/../lib/gcc/arm-none-eabi/12.2.0/../../../../arm-none-eabi/lib/libg.a(lib_a-strcpy.o)
                              ../menu/src/GameMenu.o (strcpy)
/opt/devkitpro/devkitARM/bin/../lib/gcc/arm-none-eabi/12.2.0/../../../../arm-none-eabi/lib/libg.a(lib_a-strdup.o)
                              /opt/devkitpro/libnds/lib/libfilesystem.a(nitrofs.o) (strdup)
/opt/devkitpro/devkitARM/bin/../lib/gcc/arm-none-eabi/12.2.0/../../../../arm-none-eabi/lib/libg.a(lib_a-strdup_r.o)
                              /opt/devkitpro/devkitARM/bin/../lib/gcc/arm-none-eabi/12.2.0/../../../../arm-none-eabi/lib/libg.a(lib_a-strdup.o) (_strdup_r)
/opt/devkitpro/devkitARM/bin/../lib/gcc/arm-none-eabi/12.2.0/../../../../arm-none-eabi/lib/libg.a(lib_a-strlcpy.o)
                              /opt/devkitpro/devkitARM/bin/../lib/gcc/arm-none-eabi/12.2.0/../../../../arm-none-eabi/lib/libg.a(lib_a-locale.o) (strlcpy)
/opt/devkitpro/devkitARM/bin/../lib/gcc/arm-none-eabi/12.2.0/../../../../arm-none-eabi/lib/libg.a(lib_a-strlen-stub.o)
                              ../menu/src/MainMenu.o (strlen)
/opt/devkitpro/devkitARM/bin/../lib/gcc/arm-none-eabi/12.2.0/../../../../arm-none-eabi/lib/libg.a(lib_a-strncasecmp.o)
                              /opt/devkitpro/libnds/lib/libfat.a(libfat.o) (strncasecmp)
/opt/devkitpro/devkitARM/bin/../lib/gcc/arm-none-eabi/12.2.0/../../../../arm-none-eabi/lib/libg.a(lib_a-strncmp.o)
                              /opt/devkitpro/libnds/lib/libfat.a(libfat.o) (strncmp)
/opt/devkitpro/devkitARM/bin/../lib/gcc/arm-none-eabi/12.2.0/../../../../arm-none-eabi/lib/libg.a(lib_a-strncpy.o)
                              /opt/devkitpro/libnds/lib/libfilesystem.a(nitrofs.o) (strncpy)
/opt/devkitpro/devkitARM/bin/../lib/gcc/arm-none-eabi/12.2.0/../../../../arm-none-eabi/lib/libg.a(lib_a-strnlen.o)
                              /opt/devkitpro/libnds/lib/libfat.a(directory.o) (strnlen)
/opt/devkitpro/devkitARM/bin/../lib/gcc/arm-none-eabi/12.2.0/../../../../arm-none-eabi/lib/libg.a(lib_a-strpbrk.o)
                              /opt/devkitpro/libnds/lib/libfat.a(directory.o) (strpbrk)
/opt/devkitpro/devkitARM/bin/../lib/gcc/arm-none-eabi/12.2.0/../../../../arm-none-eabi/lib/libg.a(lib_a-strrchr.o)
                              /opt/devkitpro/libnds/lib/libfat.a(libfat.o) (strrchr)
/opt/devkitpro/devkitARM/bin/../lib/gcc/arm-none-eabi/12.2.0/../../../../arm-none-eabi/lib/libg.a(lib_a-strtok.o)
                              ../base3d/src/Dungeon.o (strtok)
/opt/devkitpro/devkitARM/bin/../lib/gcc/arm-none-eabi/12.2.0/../../../../arm-none-eabi/lib/libg.a(lib_a-strtok_r.o)
                              /opt/devkitpro/devkitARM/bin/../lib/gcc/arm-none-eabi/12.2.0/../../../../arm-none-eabi/lib/libg.a(lib_a-strtok.o) (__strtok_r)
/opt/devkitpro/devkitARM/bin/../lib/gcc/arm-none-eabi/12.2.0/../../../../arm-none-eabi/lib/libg.a(lib_a-strtol.o)
                              /opt/devkitpro/devkitARM/bin/../lib/gcc/arm-none-eabi/12.2.0/../../../../arm-none-eabi/lib/libg.a(lib_a-atoi.o) (_strtol_r)
/opt/devkitpro/devkitARM/bin/../lib/gcc/arm-none-eabi/12.2.0/../../../../arm-none-eabi/lib/libg.a(lib_a-svfprintf.o)
                              /opt/devkitpro/devkitARM/bin/../lib/gcc/arm-none-eabi/12.2.0/../../../../arm-none-eabi/lib/libg.a(lib_a-sprintf.o) (_svfprintf_r)
/opt/devkitpro/devkitARM/bin/../lib/gcc/arm-none-eabi/12.2.0/../../../../arm-none-eabi/lib/libg.a(lib_a-sysclose.o)
                              /opt/devkitpro/libnds/lib/libnds9.a(dldi.o) (close)
/opt/devkitpro/devkitARM/bin/../lib/gcc/arm-none-eabi/12.2.0/../../../../arm-none-eabi/lib/libg.a(lib_a-syslseek.o)
                              /opt/devkitpro/libnds/lib/libfilesystem.a(nitrofs.o) (lseek)
/opt/devkitpro/devkitARM/bin/../lib/gcc/arm-none-eabi/12.2.0/../../../../arm-none-eabi/lib/libg.a(lib_a-sysopen.o)
                              /opt/devkitpro/libnds/lib/libfilesystem.a(nitrofs.o) (open)
/opt/devkitpro/devkitARM/bin/../lib/gcc/arm-none-eabi/12.2.0/../../../../arm-none-eabi/lib/libg.a(lib_a-sysread.o)
                              /opt/devkitpro/libnds/lib/libfilesystem.a(nitrofs.o) (read)
/opt/devkitpro/devkitARM/bin/../lib/gcc/arm-none-eabi/12.2.0/../../../../arm-none-eabi/lib/libg.a(lib_a-time.o)
                              /opt/devkitpro/libnds/lib/libfat.a(filetime.o) (time)
/opt/devkitpro/devkitARM/bin/../lib/gcc/arm-none-eabi/12.2.0/../../../../arm-none-eabi/lib/libg.a(lib_a-towlower.o)
                              /opt/devkitpro/libnds/lib/libfat.a(directory.o) (towlower)
/opt/devkitpro/devkitARM/bin/../lib/gcc/arm-none-eabi/12.2.0/../../../../arm-none-eabi/lib/libg.a(lib_a-towupper.o)
                              /opt/devkitpro/libnds/lib/libfat.a(directory.o) (towupper)
/opt/devkitpro/devkitARM/bin/../lib/gcc/arm-none-eabi/12.2.0/../../../../arm-none-eabi/lib/libg.a(lib_a-tzcalc_limits.o)
                              /opt/devkitpro/devkitARM/bin/../lib/gcc/arm-none-eabi/12.2.0/../../../../arm-none-eabi/lib/libg.a(lib_a-lcltime_r.o) (__tzcalc_limits)
/opt/devkitpro/devkitARM/bin/../lib/gcc/arm-none-eabi/12.2.0/../../../../arm-none-eabi/lib/libg.a(lib_a-tzlock.o)
                              /opt/devkitpro/devkitARM/bin/../lib/gcc/arm-none-eabi/12.2.0/../../../../arm-none-eabi/lib/libg.a(lib_a-lcltime_r.o) (__tz_lock)
/opt/devkitpro/devkitARM/bin/../lib/gcc/arm-none-eabi/12.2.0/../../../../arm-none-eabi/lib/libg.a(lib_a-tzset.o)
                              /opt/devkitpro/devkitARM/bin/../lib/gcc/arm-none-eabi/12.2.0/../../../../arm-none-eabi/lib/libg.a(lib_a-lcltime_r.o) (_tzset_unlocked)
/opt/devkitpro/devkitARM/bin/../lib/gcc/arm-none-eabi/12.2.0/../../../../arm-none-eabi/lib/libg.a(lib_a-tzset_r.o)
                              /opt/devkitpro/devkitARM/bin/../lib/gcc/arm-none-eabi/12.2.0/../../../../arm-none-eabi/lib/libg.a(lib_a-tzset.o) (_tzset_unlocked_r)
/opt/devkitpro/devkitARM/bin/../lib/gcc/arm-none-eabi/12.2.0/../../../../arm-none-eabi/lib/libg.a(lib_a-tzvars.o)
                              /opt/devkitpro/devkitARM/bin/../lib/gcc/arm-none-eabi/12.2.0/../../../../arm-none-eabi/lib/libg.a(lib_a-tzset_r.o) (_timezone)
/opt/devkitpro/devkitARM/bin/../lib/gcc/arm-none-eabi/12.2.0/../../../../arm-none-eabi/lib/libg.a(lib_a-vfiprintf.o)
                              /opt/devkitpro/devkitARM/bin/../lib/gcc/arm-none-eabi/12.2.0/../../../../arm-none-eabi/lib/libg.a(lib_a-fiprintf.o) (_vfiprintf_r)
/opt/devkitpro/devkitARM/bin/../lib/gcc/arm-none-eabi/12.2.0/../../../../arm-none-eabi/lib/libg.a(lib_a-vfprintf.o)
                              /opt/devkitpro/devkitARM/bin/../lib/gcc/arm-none-eabi/12.2.0/../../../../arm-none-eabi/lib/libg.a(lib_a-printf.o) (_vfprintf_r)
/opt/devkitpro/devkitARM/bin/../lib/gcc/arm-none-eabi/12.2.0/../../../../arm-none-eabi/lib/libg.a(lib_a-wcrtomb.o)
                              /opt/devkitpro/devkitARM/bin/../lib/gcc/arm-none-eabi/12.2.0/../../../../arm-none-eabi/lib/libg.a(lib_a-svfprintf.o) (_wcrtomb_r)
/opt/devkitpro/devkitARM/bin/../lib/gcc/arm-none-eabi/12.2.0/../../../../arm-none-eabi/lib/libg.a(lib_a-wcsrtombs.o)
                              /opt/devkitpro/devkitARM/bin/../lib/gcc/arm-none-eabi/12.2.0/../../../../arm-none-eabi/lib/libg.a(lib_a-svfprintf.o) (_wcsrtombs_r)
/opt/devkitpro/devkitARM/bin/../lib/gcc/arm-none-eabi/12.2.0/../../../../arm-none-eabi/lib/libg.a(lib_a-wctob.o)
                              /opt/devkitpro/libnds/lib/libfat.a(directory.o) (wctob)
/opt/devkitpro/devkitARM/bin/../lib/gcc/arm-none-eabi/12.2.0/../../../../arm-none-eabi/lib/libg.a(lib_a-wctomb_r.o)
                              /opt/devkitpro/devkitARM/bin/../lib/gcc/arm-none-eabi/12.2.0/../../../../arm-none-eabi/lib/libg.a(lib_a-locale.o) (__ascii_wctomb)
/opt/devkitpro/devkitARM/bin/../lib/gcc/arm-none-eabi/12.2.0/../../../../arm-none-eabi/lib/libg.a(lib_a-wsetup.o)
                              /opt/devkitpro/devkitARM/bin/../lib/gcc/arm-none-eabi/12.2.0/../../../../arm-none-eabi/lib/libg.a(lib_a-vfiprintf.o) (__swsetup_r)
/opt/devkitpro/devkitARM/bin/../lib/gcc/arm-none-eabi/12.2.0/../../../../arm-none-eabi/lib/libg.a(lib_a-abort.o)
                              /opt/devkitpro/devkitARM/bin/../lib/gcc/arm-none-eabi/12.2.0/../../../../arm-none-eabi/lib/libg.a(lib_a-assert.o) (abort)
/opt/devkitpro/devkitARM/bin/../lib/gcc/arm-none-eabi/12.2.0/../../../../arm-none-eabi/lib/libg.a(lib_a-__call_atexit.o)
                              /opt/devkitpro/devkitARM/bin/../lib/gcc/arm-none-eabi/12.2.0/../../../../arm-none-eabi/lib/libg.a(lib_a-exit.o) (__call_exitprocs)
/opt/devkitpro/devkitARM/bin/../lib/gcc/arm-none-eabi/12.2.0/../../../../arm-none-eabi/lib/libg.a(lib_a-div.o)
                              /opt/devkitpro/devkitARM/bin/../lib/gcc/arm-none-eabi/12.2.0/../../../../arm-none-eabi/lib/libg.a(lib_a-mktime.o) (div)
/opt/devkitpro/devkitARM/bin/../lib/gcc/arm-none-eabi/12.2.0/../../../../arm-none-eabi/lib/libg.a(lib_a-dtoa.o)
                              /opt/devkitpro/devkitARM/bin/../lib/gcc/arm-none-eabi/12.2.0/../../../../arm-none-eabi/lib/libg.a(lib_a-svfprintf.o) (_dtoa_r)
/opt/devkitpro/devkitARM/bin/../lib/gcc/arm-none-eabi/12.2.0/../../../../arm-none-eabi/lib/libg.a(lib_a-flags.o)
                              /opt/devkitpro/devkitARM/bin/../lib/gcc/arm-none-eabi/12.2.0/../../../../arm-none-eabi/lib/libg.a(lib_a-fopen.o) (__sflags)
/opt/devkitpro/devkitARM/bin/../lib/gcc/arm-none-eabi/12.2.0/../../../../arm-none-eabi/lib/libg.a(lib_a-fvwrite.o)
                              /opt/devkitpro/devkitARM/bin/../lib/gcc/arm-none-eabi/12.2.0/../../../../arm-none-eabi/lib/libg.a(lib_a-vfiprintf.o) (__sfvwrite_r)
/opt/devkitpro/devkitARM/bin/../lib/gcc/arm-none-eabi/12.2.0/../../../../arm-none-eabi/lib/libg.a(lib_a-getenv_r.o)
                              /opt/devkitpro/devkitARM/bin/../lib/gcc/arm-none-eabi/12.2.0/../../../../arm-none-eabi/lib/libg.a(lib_a-locale.o) (_getenv_r)
/opt/devkitpro/devkitARM/bin/../lib/gcc/arm-none-eabi/12.2.0/../../../../arm-none-eabi/lib/libg.a(lib_a-gettzinfo.o)
                              /opt/devkitpro/devkitARM/bin/../lib/gcc/arm-none-eabi/12.2.0/../../../../arm-none-eabi/lib/libg.a(lib_a-lcltime_r.o) (__gettzinfo)
/opt/devkitpro/devkitARM/bin/../lib/gcc/arm-none-eabi/12.2.0/../../../../arm-none-eabi/lib/libg.a(lib_a-gmtime_r.o)
                              /opt/devkitpro/devkitARM/bin/../lib/gcc/arm-none-eabi/12.2.0/../../../../arm-none-eabi/lib/libg.a(lib_a-lcltime_r.o) (gmtime_r)
/opt/devkitpro/devkitARM/bin/../lib/gcc/arm-none-eabi/12.2.0/../../../../arm-none-eabi/lib/libg.a(lib_a-localeconv.o)
                              /opt/devkitpro/devkitARM/bin/../lib/gcc/arm-none-eabi/12.2.0/../../../../arm-none-eabi/lib/libg.a(lib_a-svfprintf.o) (_localeconv_r)
/opt/devkitpro/devkitARM/bin/../lib/gcc/arm-none-eabi/12.2.0/../../../../arm-none-eabi/lib/libg.a(lib_a-mbsnrtowcs.o)
                              /opt/devkitpro/devkitARM/bin/../lib/gcc/arm-none-eabi/12.2.0/../../../../arm-none-eabi/lib/libg.a(lib_a-mbsrtowcs.o) (_mbsnrtowcs_r)
/opt/devkitpro/devkitARM/bin/../lib/gcc/arm-none-eabi/12.2.0/../../../../arm-none-eabi/lib/libg.a(lib_a-memchr-stub.o)
                              /opt/devkitpro/devkitARM/bin/../lib/gcc/arm-none-eabi/12.2.0/../../../../arm-none-eabi/lib/libg.a(lib_a-svfprintf.o) (memchr)
/opt/devkitpro/devkitARM/bin/../lib/gcc/arm-none-eabi/12.2.0/../../../../arm-none-eabi/lib/libg.a(lib_a-mprec.o)
                              /opt/devkitpro/devkitARM/bin/../lib/gcc/arm-none-eabi/12.2.0/../../../../arm-none-eabi/lib/libg.a(lib_a-dtoa.o) (_Balloc)
/opt/devkitpro/devkitARM/bin/../lib/gcc/arm-none-eabi/12.2.0/../../../../arm-none-eabi/lib/libg.a(lib_a-s_frexp.o)
                              /opt/devkitpro/devkitARM/bin/../lib/gcc/arm-none-eabi/12.2.0/../../../../arm-none-eabi/lib/libg.a(lib_a-svfprintf.o) (frexp)
/opt/devkitpro/devkitARM/bin/../lib/gcc/arm-none-eabi/12.2.0/../../../../arm-none-eabi/lib/libg.a(lib_a-signal.o)
                              /opt/devkitpro/devkitARM/bin/../lib/gcc/arm-none-eabi/12.2.0/../../../../arm-none-eabi/lib/libg.a(lib_a-abort.o) (raise)
/opt/devkitpro/devkitARM/bin/../lib/gcc/arm-none-eabi/12.2.0/../../../../arm-none-eabi/lib/libg.a(lib_a-siscanf.o)
                              /opt/devkitpro/devkitARM/bin/../lib/gcc/arm-none-eabi/12.2.0/../../../../arm-none-eabi/lib/libg.a(lib_a-tzset_r.o) (siscanf)
/opt/devkitpro/devkitARM/bin/../lib/gcc/arm-none-eabi/12.2.0/../../../../arm-none-eabi/lib/libg.a(lib_a-strtoul.o)
                              /opt/devkitpro/devkitARM/bin/../lib/gcc/arm-none-eabi/12.2.0/../../../../arm-none-eabi/lib/libg.a(lib_a-tzset_r.o) (strtoul)
/opt/devkitpro/devkitARM/bin/../lib/gcc/arm-none-eabi/12.2.0/../../../../arm-none-eabi/lib/libg.a(lib_a-svfiprintf.o)
                              /opt/devkitpro/devkitARM/bin/../lib/gcc/arm-none-eabi/12.2.0/../../../../arm-none-eabi/lib/libg.a(lib_a-svfprintf.o) (__chclass)
/opt/devkitpro/devkitARM/bin/../lib/gcc/arm-none-eabi/12.2.0/../../../../arm-none-eabi/lib/libg.a(lib_a-svfiscanf.o)
                              /opt/devkitpro/devkitARM/bin/../lib/gcc/arm-none-eabi/12.2.0/../../../../arm-none-eabi/lib/libg.a(lib_a-siscanf.o) (__ssvfiscanf_r)
/opt/devkitpro/devkitARM/bin/../lib/gcc/arm-none-eabi/12.2.0/../../../../arm-none-eabi/lib/libg.a(lib_a-towctrans.o)
                              /opt/devkitpro/devkitARM/bin/../lib/gcc/arm-none-eabi/12.2.0/../../../../arm-none-eabi/lib/libg.a(lib_a-towlower.o) (towctrans)
/opt/devkitpro/devkitARM/bin/../lib/gcc/arm-none-eabi/12.2.0/../../../../arm-none-eabi/lib/libg.a(lib_a-ungetc.o)
                              /opt/devkitpro/devkitARM/bin/../lib/gcc/arm-none-eabi/12.2.0/../../../../arm-none-eabi/lib/libg.a(lib_a-svfiscanf.o) (__submore)
/opt/devkitpro/devkitARM/bin/../lib/gcc/arm-none-eabi/12.2.0/../../../../arm-none-eabi/lib/libg.a(lib_a-wcsnrtombs.o)
                              /opt/devkitpro/devkitARM/bin/../lib/gcc/arm-none-eabi/12.2.0/../../../../arm-none-eabi/lib/libg.a(lib_a-wcsrtombs.o) (_wcsnrtombs_r)
/opt/devkitpro/devkitARM/bin/../lib/gcc/arm-none-eabi/12.2.0/../../../../arm-none-eabi/lib/libg.a(lib_a-environ.o)
                              /opt/devkitpro/devkitARM/bin/../lib/gcc/arm-none-eabi/12.2.0/../../../../arm-none-eabi/lib/libg.a(lib_a-getenv_r.o) (environ)
/opt/devkitpro/devkitARM/bin/../lib/gcc/arm-none-eabi/12.2.0/../../../../arm-none-eabi/lib/libg.a(lib_a-envlock.o)
                              /opt/devkitpro/devkitARM/bin/../lib/gcc/arm-none-eabi/12.2.0/../../../../arm-none-eabi/lib/libg.a(lib_a-getenv_r.o) (__env_lock)
/opt/devkitpro/devkitARM/bin/../lib/gcc/arm-none-eabi/12.2.0/../../../../arm-none-eabi/lib/libg.a(lib_a-iswspace.o)
                              /opt/devkitpro/devkitARM/bin/../lib/gcc/arm-none-eabi/12.2.0/../../../../arm-none-eabi/lib/libg.a(lib_a-svfiscanf.o) (iswspace)
/opt/devkitpro/devkitARM/bin/../lib/gcc/arm-none-eabi/12.2.0/../../../../arm-none-eabi/lib/libg.a(lib_a-sccl.o)
                              /opt/devkitpro/devkitARM/bin/../lib/gcc/arm-none-eabi/12.2.0/../../../../arm-none-eabi/lib/libg.a(lib_a-svfiscanf.o) (__sccl)
/opt/devkitpro/devkitARM/bin/../lib/gcc/arm-none-eabi/12.2.0/../../../../arm-none-eabi/lib/libg.a(lib_a-strtoll.o)
                              /opt/devkitpro/devkitARM/bin/../lib/gcc/arm-none-eabi/12.2.0/../../../../arm-none-eabi/lib/libg.a(lib_a-svfiscanf.o) (_strtoll_r)
/opt/devkitpro/devkitARM/bin/../lib/gcc/arm-none-eabi/12.2.0/../../../../arm-none-eabi/lib/libg.a(lib_a-strtoull.o)
                              /opt/devkitpro/devkitARM/bin/../lib/gcc/arm-none-eabi/12.2.0/../../../../arm-none-eabi/lib/libg.a(lib_a-svfiscanf.o) (_strtoull_r)
/opt/devkitpro/devkitARM/bin/../lib/gcc/arm-none-eabi/12.2.0/../../../../arm-none-eabi/lib/libg.a(lib_a-towctrans_l.o)
                              /opt/devkitpro/devkitARM/bin/../lib/gcc/arm-none-eabi/12.2.0/../../../../arm-none-eabi/lib/libg.a(lib_a-towctrans.o) (towctrans_l)
/opt/devkitpro/devkitARM/bin/../lib/gcc/arm-none-eabi/12.2.0/../../../../arm-none-eabi/lib/libg.a(lib_a-iswspace_l.o)
                              /opt/devkitpro/devkitARM/bin/../lib/gcc/arm-none-eabi/12.2.0/../../../../arm-none-eabi/lib/libg.a(lib_a-iswspace.o) (iswspace_l)
/opt/devkitpro/devkitARM/bin/../lib/gcc/arm-none-eabi/12.2.0/../../../../arm-none-eabi/lib/libg.a(lib_a-jp2uc.o)
                              /opt/devkitpro/devkitARM/bin/../lib/gcc/arm-none-eabi/12.2.0/../../../../arm-none-eabi/lib/libg.a(lib_a-towctrans_l.o) (_jp2uc_l)
/opt/devkitpro/devkitARM/bin/../lib/gcc/arm-none-eabi/12.2.0/../../../../arm-none-eabi/lib/libg.a(lib_a-categories.o)
                              /opt/devkitpro/devkitARM/bin/../lib/gcc/arm-none-eabi/12.2.0/../../../../arm-none-eabi/lib/libg.a(lib_a-iswspace_l.o) (category)
/opt/devkitpro/devkitARM/bin/../lib/gcc/arm-none-eabi/12.2.0/../../../../arm-none-eabi/lib/libsysbase.a(iosupport.o)
                              /opt/devkitpro/libnds/lib/libfat.a(libfat.o) (FindDevice)
/opt/devkitpro/devkitARM/bin/../lib/gcc/arm-none-eabi/12.2.0/../../../../arm-none-eabi/lib/libsysbase.a(fstat.o)
                              /opt/devkitpro/devkitARM/bin/../lib/gcc/arm-none-eabi/12.2.0/../../../../arm-none-eabi/lib/libg.a(lib_a-fseeko.o) (_fstat_r)
/opt/devkitpro/devkitARM/bin/../lib/gcc/arm-none-eabi/12.2.0/../../../../arm-none-eabi/lib/libsysbase.a(getpid.o)
                              /opt/devkitpro/devkitARM/bin/../lib/gcc/arm-none-eabi/12.2.0/../../../../arm-none-eabi/lib/libg.a(lib_a-signal.o) (_getpid_r)
/opt/devkitpro/devkitARM/bin/../lib/gcc/arm-none-eabi/12.2.0/../../../../arm-none-eabi/lib/libsysbase.a(gettod.o)
                              /opt/devkitpro/devkitARM/bin/../lib/gcc/arm-none-eabi/12.2.0/../../../../arm-none-eabi/lib/libg.a(lib_a-time.o) (_gettimeofday_r)
/opt/devkitpro/devkitARM/bin/../lib/gcc/arm-none-eabi/12.2.0/../../../../arm-none-eabi/lib/libsysbase.a(isatty.o)
                              /opt/devkitpro/devkitARM/bin/../lib/gcc/arm-none-eabi/12.2.0/../../../../arm-none-eabi/lib/libg.a(lib_a-makebuf.o) (_isatty_r)
/opt/devkitpro/devkitARM/bin/../lib/gcc/arm-none-eabi/12.2.0/../../../../arm-none-eabi/lib/libsysbase.a(kill.o)
                              /opt/devkitpro/devkitARM/bin/../lib/gcc/arm-none-eabi/12.2.0/../../../../arm-none-eabi/lib/libg.a(lib_a-signal.o) (_kill_r)
/opt/devkitpro/devkitARM/bin/../lib/gcc/arm-none-eabi/12.2.0/../../../../arm-none-eabi/lib/libsysbase.a(lseek.o)
                              /opt/devkitpro/devkitARM/bin/../lib/gcc/arm-none-eabi/12.2.0/../../../../arm-none-eabi/lib/libg.a(lib_a-stdio.o) (_lseek_r)
/opt/devkitpro/devkitARM/bin/../lib/gcc/arm-none-eabi/12.2.0/../../../../arm-none-eabi/lib/libsysbase.a(open.o)
                              /opt/devkitpro/devkitARM/bin/../lib/gcc/arm-none-eabi/12.2.0/../../../../arm-none-eabi/lib/libg.a(lib_a-fopen.o) (_open_r)
/opt/devkitpro/devkitARM/bin/../lib/gcc/arm-none-eabi/12.2.0/../../../../arm-none-eabi/lib/libsysbase.a(read.o)
                              /opt/devkitpro/devkitARM/bin/../lib/gcc/arm-none-eabi/12.2.0/../../../../arm-none-eabi/lib/libg.a(lib_a-stdio.o) (_read_r)
/opt/devkitpro/devkitARM/bin/../lib/gcc/arm-none-eabi/12.2.0/../../../../arm-none-eabi/lib/libsysbase.a(sbrk.o)
                              /opt/devkitpro/devkitARM/bin/../lib/gcc/arm-none-eabi/12.2.0/../../../../arm-none-eabi/lib/libg.a(lib_a-freer.o) (_sbrk_r)
/opt/devkitpro/devkitARM/bin/../lib/gcc/arm-none-eabi/12.2.0/../../../../arm-none-eabi/lib/libsysbase.a(write.o)
                              /opt/devkitpro/devkitARM/bin/../lib/gcc/arm-none-eabi/12.2.0/../../../../arm-none-eabi/lib/libg.a(lib_a-stdio.o) (_write_r)
/opt/devkitpro/devkitARM/bin/../lib/gcc/arm-none-eabi/12.2.0/../../../../arm-none-eabi/lib/libsysbase.a(_exit.o)
                              /opt/devkitpro/devkitARM/bin/../lib/gcc/arm-none-eabi/12.2.0/../../../../arm-none-eabi/lib/libg.a(lib_a-exit.o) (_exit)
/opt/devkitpro/devkitARM/bin/../lib/gcc/arm-none-eabi/12.2.0/../../../../arm-none-eabi/lib/libsysbase.a(malloc_vars.o)
                              /opt/devkitpro/devkitARM/bin/../lib/gcc/arm-none-eabi/12.2.0/../../../../arm-none-eabi/lib/ds_arm9_crt0.o (fake_heap_start)
/opt/devkitpro/devkitARM/bin/../lib/gcc/arm-none-eabi/12.2.0/../../../../arm-none-eabi/lib/libsysbase.a(chdir.o)
                              /opt/devkitpro/libnds/lib/libfilesystem.a(nitrofs.o) (chdir)
/opt/devkitpro/devkitARM/bin/../lib/gcc/arm-none-eabi/12.2.0/../../../../arm-none-eabi/lib/libsysbase.a(build_argv.o)
                              /opt/devkitpro/devkitARM/bin/../lib/gcc/arm-none-eabi/12.2.0/../../../../arm-none-eabi/lib/ds_arm9_crt0.o (build_argv)
/opt/devkitpro/devkitARM/bin/../lib/gcc/arm-none-eabi/12.2.0/../../../../arm-none-eabi/lib/libsysbase.a(flock.o)
                              /opt/devkitpro/devkitARM/bin/../lib/gcc/arm-none-eabi/12.2.0/../../../../arm-none-eabi/lib/libg.a(lib_a-fclose.o) (__flockfile)
/opt/devkitpro/devkitARM/bin/../lib/gcc/arm-none-eabi/12.2.0/../../../../arm-none-eabi/lib/libsysbase.a(handle_manager.o)
                              /opt/devkitpro/devkitARM/bin/../lib/gcc/arm-none-eabi/12.2.0/../../../../arm-none-eabi/lib/libsysbase.a(open.o) (__release_handle)
/opt/devkitpro/devkitARM/bin/../lib/gcc/arm-none-eabi/12.2.0/../../../../arm-none-eabi/lib/libsysbase.a(getreent.o)
                              /opt/devkitpro/devkitARM/bin/../lib/gcc/arm-none-eabi/12.2.0/../../../../arm-none-eabi/lib/libg.a(lib_a-assert.o) (__getreent)
/opt/devkitpro/devkitARM/bin/../lib/gcc/arm-none-eabi/12.2.0/../../../../arm-none-eabi/lib/libsysbase.a(syscall_support.o)
                              /opt/devkitpro/devkitARM/bin/../lib/gcc/arm-none-eabi/12.2.0/../../../../arm-none-eabi/lib/libg.a(lib_a-tzlock.o) (__libc_lock_acquire)
/opt/devkitpro/devkitARM/bin/../lib/gcc/arm-none-eabi/12.2.0/libgcc.a(_arm_muldf3.o)
                              /opt/devkitpro/devkitARM/bin/../lib/gcc/arm-none-eabi/12.2.0/../../../../arm-none-eabi/lib/libg.a(lib_a-svfprintf.o) (__aeabi_dmul)
/opt/devkitpro/devkitARM/bin/../lib/gcc/arm-none-eabi/12.2.0/libgcc.a(_arm_addsubdf3.o)
                              /opt/devkitpro/devkitARM/bin/../lib/gcc/arm-none-eabi/12.2.0/../../../../arm-none-eabi/lib/libg.a(lib_a-svfprintf.o) (__aeabi_dsub)
/opt/devkitpro/devkitARM/bin/../lib/gcc/arm-none-eabi/12.2.0/libgcc.a(_arm_muldivdf3.o)
                              /opt/devkitpro/devkitARM/bin/../lib/gcc/arm-none-eabi/12.2.0/../../../../arm-none-eabi/lib/libg.a(lib_a-dtoa.o) (__aeabi_ddiv)
/opt/devkitpro/devkitARM/bin/../lib/gcc/arm-none-eabi/12.2.0/libgcc.a(_arm_cmpdf2.o)
                              /opt/devkitpro/devkitARM/bin/../lib/gcc/arm-none-eabi/12.2.0/../../../../arm-none-eabi/lib/libg.a(lib_a-svfprintf.o) (__aeabi_dcmpeq)
/opt/devkitpro/devkitARM/bin/../lib/gcc/arm-none-eabi/12.2.0/libgcc.a(_arm_unorddf2.o)
                              /opt/devkitpro/devkitARM/bin/../lib/gcc/arm-none-eabi/12.2.0/../../../../arm-none-eabi/lib/libg.a(lib_a-svfprintf.o) (__aeabi_dcmpun)
/opt/devkitpro/devkitARM/bin/../lib/gcc/arm-none-eabi/12.2.0/libgcc.a(_arm_fixdfsi.o)
                              /opt/devkitpro/devkitARM/bin/../lib/gcc/arm-none-eabi/12.2.0/../../../../arm-none-eabi/lib/libg.a(lib_a-svfprintf.o) (__aeabi_d2iz)
/opt/devkitpro/devkitARM/bin/../lib/gcc/arm-none-eabi/12.2.0/libgcc.a(_aeabi_uldivmod.o)
                              /opt/devkitpro/devkitARM/bin/../lib/gcc/arm-none-eabi/12.2.0/../../../../arm-none-eabi/lib/libg.a(lib_a-svfprintf.o) (__aeabi_uldivmod)

Discarded input sections

 .text          0x0000000000000000        0x0 /opt/devkitpro/devkitARM/bin/../lib/gcc/arm-none-eabi/12.2.0/../../../../arm-none-eabi/lib/ds_arm9_crt0.o
 .data          0x0000000000000000        0x0 /opt/devkitpro/devkitARM/bin/../lib/gcc/arm-none-eabi/12.2.0/../../../../arm-none-eabi/lib/ds_arm9_crt0.o
 .bss           0x0000000000000000        0x0 /opt/devkitpro/devkitARM/bin/../lib/gcc/arm-none-eabi/12.2.0/../../../../arm-none-eabi/lib/ds_arm9_crt0.o
 .text          0x0000000000000000        0x0 /opt/devkitpro/devkitARM/bin/../lib/gcc/arm-none-eabi/12.2.0/crti.o
 .data          0x0000000000000000        0x0 /opt/devkitpro/devkitARM/bin/../lib/gcc/arm-none-eabi/12.2.0/crti.o
 .bss           0x0000000000000000        0x0 /opt/devkitpro/devkitARM/bin/../lib/gcc/arm-none-eabi/12.2.0/crti.o
 .text          0x0000000000000000        0x0 /opt/devkitpro/devkitARM/bin/../lib/gcc/arm-none-eabi/12.2.0/crtbegin.o
 .data          0x0000000000000000        0x0 /opt/devkitpro/devkitARM/bin/../lib/gcc/arm-none-eabi/12.2.0/crtbegin.o
 .bss           0x0000000000000000        0x0 /opt/devkitpro/devkitARM/bin/../lib/gcc/arm-none-eabi/12.2.0/crtbegin.o
 .rodata.all_implied_fbits
                0x0000000000000000       0x24 /opt/devkitpro/devkitARM/bin/../lib/gcc/arm-none-eabi/12.2.0/crtbegin.o
 .data.__dso_handle
                0x0000000000000000        0x4 /opt/devkitpro/devkitARM/bin/../lib/gcc/arm-none-eabi/12.2.0/crtbegin.o
 .rodata        0x0000000000000000        0x4 ../menu/src/MainMenu.o
 .text          0x0000000000000000       0x3c ../menu/src/Main.o
 .data          0x0000000000000000        0x0 ../menu/src/Main.o
 .rodata        0x0000000000000000        0x4 ../menu/src/Main.o
 .data          0x0000000000000000        0x0 ../menu/src/Engine.o
 .data          0x0000000000000000        0x4 ../base3d/src/nitro/NitroGLRenderer.o
 .text          0x0000000000000000        0x0 ../base3d/src/Globals.o
 .data          0x0000000000000000        0x0 ../base3d/src/CTile3DProperties.o
 .bss           0x0000000000000000        0x0 ../base3d/src/CTile3DProperties.o
 .data          0x0000000000000000        0x0 ../GL1Common/LoadBitmapGL1.o
 .data          0x0000000000000000        0x5 ../GL1Common/Renderer_RasterizationGL1.o
 .data          0x0000000000000000        0x0 ../GL1Common/Renderer_TesselationGL1.o
 .data          0x0000000000000000        0x0 ../base3d/src/VisibilityStrategy.o
 .bss           0x0000000000000000        0x0 ../base3d/src/VisibilityStrategy.o
 .data          0x0000000000000000        0x0 ../../common/src/Vec.o
 .bss           0x0000000000000000        0x0 ../../common/src/Vec.o
 .data          0x0000000000000000        0x0 ../../common/src/Common.o
 .bss           0x0000000000000000        0x0 ../../common/src/Common.o
 .text          0x0000000000000000        0x0 ../../common/src/FixP.o
 .data          0x0000000000000000        0x0 ../../common/src/FixP.o
 .bss           0x0000000000000000        0x0 ../../common/src/FixP.o
 .debug_info    0x0000000000000000       0x81 ../../common/src/FixP.o
 .debug_abbrev  0x0000000000000000       0x26 ../../common/src/FixP.o
 .debug_aranges
                0x0000000000000000       0x18 ../../common/src/FixP.o
 .debug_line    0x0000000000000000       0x38 ../../common/src/FixP.o
 .debug_str     0x0000000000000000      0x140 ../../common/src/FixP.o
 .comment       0x0000000000000000       0x24 ../../common/src/FixP.o
 .ARM.attributes
                0x0000000000000000       0x2b ../../common/src/FixP.o
 .data          0x0000000000000000        0x0 ../../common/src/MapWithCharKey.o
 .bss           0x0000000000000000        0x0 ../../common/src/MapWithCharKey.o
 .data          0x0000000000000000        0x0 ../../common/src/PackedFileReader.o
 .data          0x0000000000000000        0x0 ../base3d/src/EDirection_Utils.o
 .bss           0x0000000000000000        0x0 ../base3d/src/EDirection_Utils.o
 .data          0x0000000000000000        0x0 ../SoundSystem/NullMusic.o
 .bss           0x0000000000000000        0x0 ../SoundSystem/NullMusic.o
 .data          0x0000000000000000        0x0 ../base3d/src/Dungeon.o
 .data          0x0000000000000000        0x0 ../menu/src/UI.o
 .bss           0x0000000000000000        0x0 ../menu/src/UI.o
 .text          0x0000000000000000       0x30 ../SoundSystem/PCMAudio.o
 .data          0x0000000000000000        0x0 ../SoundSystem/PCMAudio.o
 .bss           0x0000000000000000        0x0 ../SoundSystem/PCMAudio.o
 .debug_info    0x0000000000000000      0x118 ../SoundSystem/PCMAudio.o
 .debug_abbrev  0x0000000000000000       0xa5 ../SoundSystem/PCMAudio.o
 .debug_aranges
                0x0000000000000000       0x20 ../SoundSystem/PCMAudio.o
 .debug_line    0x0000000000000000      0x157 ../SoundSystem/PCMAudio.o
 .debug_str     0x0000000000000000      0x176 ../SoundSystem/PCMAudio.o
 .comment       0x0000000000000000       0x24 ../SoundSystem/PCMAudio.o
 .debug_frame   0x0000000000000000       0x28 ../SoundSystem/PCMAudio.o
 .ARM.attributes
                0x0000000000000000       0x2b ../SoundSystem/PCMAudio.o
 .data          0x0000000000000000        0x0 ../../core/src/Derelict.o
 .data          0x0000000000000000        0x0 ../../core/src/Parser.o
 .bss           0x0000000000000000        0x0 ../../core/src/Parser.o
 .text          0x0000000000000000        0x0 /opt/devkitpro/libnds/lib/libfilesystem.a(nitrofs.o)
 .data          0x0000000000000000        0x0 /opt/devkitpro/libnds/lib/libfilesystem.a(nitrofs.o)
 .bss           0x0000000000000000        0x0 /opt/devkitpro/libnds/lib/libfilesystem.a(nitrofs.o)
 .text          0x0000000000000000        0x0 /opt/devkitpro/libnds/lib/libfat.a(libfat.o)
 .data          0x0000000000000000        0x0 /opt/devkitpro/libnds/lib/libfat.a(libfat.o)
 .bss           0x0000000000000000        0x0 /opt/devkitpro/libnds/lib/libfat.a(libfat.o)
 .text.fatMountSimple
                0x0000000000000000       0x38 /opt/devkitpro/libnds/lib/libfat.a(libfat.o)
 .text.fatUnmount
                0x0000000000000000       0x34 /opt/devkitpro/libnds/lib/libfat.a(libfat.o)
 .rodata.fatGetVolumeLabel.str1.4
                0x0000000000000000        0x8 /opt/devkitpro/libnds/lib/libfat.a(libfat.o)
 .text.fatGetVolumeLabel
                0x0000000000000000       0xd8 /opt/devkitpro/libnds/lib/libfat.a(libfat.o)
 .text          0x0000000000000000        0x0 /opt/devkitpro/libnds/lib/libfat.a(disc.o)
 .data          0x0000000000000000        0x0 /opt/devkitpro/libnds/lib/libfat.a(disc.o)
 .bss           0x0000000000000000        0x0 /opt/devkitpro/libnds/lib/libfat.a(disc.o)
 .text          0x0000000000000000        0x0 /opt/devkitpro/libnds/lib/libfat.a(fatfile.o)
 .data          0x0000000000000000        0x0 /opt/devkitpro/libnds/lib/libfat.a(fatfile.o)
 .bss           0x0000000000000000        0x0 /opt/devkitpro/libnds/lib/libfat.a(fatfile.o)
 .text._FAT_findEntry
                0x0000000000000000       0x5c /opt/devkitpro/libnds/lib/libfat.a(fatfile.o)
 .text.FAT_getAttr
                0x0000000000000000       0x1c /opt/devkitpro/libnds/lib/libfat.a(fatfile.o)
 .text.FAT_setAttr
                0x0000000000000000       0xa0 /opt/devkitpro/libnds/lib/libfat.a(fatfile.o)
 .text._FAT_syncToDisc
                0x0000000000000000       0x18 /opt/devkitpro/libnds/lib/libfat.a(fatfile.o)
 .text          0x0000000000000000        0x0 /opt/devkitpro/libnds/lib/libfat.a(cache.o)
 .data          0x0000000000000000        0x0 /opt/devkitpro/libnds/lib/libfat.a(cache.o)
 .bss           0x0000000000000000        0x0 /opt/devkitpro/libnds/lib/libfat.a(cache.o)
 .text._FAT_cache_destructor
                0x0000000000000000       0x34 /opt/devkitpro/libnds/lib/libfat.a(cache.o)
 .text._FAT_cache_invalidate
                0x0000000000000000       0x30 /opt/devkitpro/libnds/lib/libfat.a(cache.o)
 .text          0x0000000000000000        0x0 /opt/devkitpro/libnds/lib/libfat.a(fatdir.o)
 .data          0x0000000000000000        0x0 /opt/devkitpro/libnds/lib/libfat.a(fatdir.o)
 .bss           0x0000000000000000        0x0 /opt/devkitpro/libnds/lib/libfat.a(fatdir.o)
 .text          0x0000000000000000        0x0 /opt/devkitpro/libnds/lib/libfat.a(directory.o)
 .data          0x0000000000000000        0x0 /opt/devkitpro/libnds/lib/libfat.a(directory.o)
 .bss           0x0000000000000000        0x0 /opt/devkitpro/libnds/lib/libfat.a(directory.o)
 .text._FAT_directory_getVolumeLabel
                0x0000000000000000       0xf4 /opt/devkitpro/libnds/lib/libfat.a(directory.o)
 .text          0x0000000000000000        0x0 /opt/devkitpro/libnds/lib/libfat.a(partition.o)
 .data          0x0000000000000000        0x0 /opt/devkitpro/libnds/lib/libfat.a(partition.o)
 .bss           0x0000000000000000        0x0 /opt/devkitpro/libnds/lib/libfat.a(partition.o)
 .text._FAT_partition_writeFSinfo.part.0
                0x0000000000000000       0x60 /opt/devkitpro/libnds/lib/libfat.a(partition.o)
 .text.FindFirstValidPartition_buf
                0x0000000000000000       0x24 /opt/devkitpro/libnds/lib/libfat.a(partition.o)
 .text.FindFirstValidPartition
                0x0000000000000000       0x3c /opt/devkitpro/libnds/lib/libfat.a(partition.o)
 .text._FAT_partition_destructor
                0x0000000000000000       0x48 /opt/devkitpro/libnds/lib/libfat.a(partition.o)
 .text._FAT_partition_writeFSinfo
                0x0000000000000000       0x10 /opt/devkitpro/libnds/lib/libfat.a(partition.o)
 .text._FAT_getCwdClusterPtr
                0x0000000000000000       0x14 /opt/devkitpro/libnds/lib/libfat.a(partition.o)
 .text          0x0000000000000000        0x0 /opt/devkitpro/libnds/lib/libfat.a(lock.o)
 .data          0x0000000000000000        0x0 /opt/devkitpro/libnds/lib/libfat.a(lock.o)
 .bss           0x0000000000000000        0x0 /opt/devkitpro/libnds/lib/libfat.a(lock.o)
 .text._FAT_lock_deinit
                0x0000000000000000        0x4 /opt/devkitpro/libnds/lib/libfat.a(lock.o)
 .text          0x0000000000000000        0x0 /opt/devkitpro/libnds/lib/libfat.a(filetime.o)
 .data          0x0000000000000000        0x0 /opt/devkitpro/libnds/lib/libfat.a(filetime.o)
 .bss           0x0000000000000000        0x0 /opt/devkitpro/libnds/lib/libfat.a(filetime.o)
 .text          0x0000000000000000        0x0 /opt/devkitpro/libnds/lib/libfat.a(file_allocation_table.o)
 .data          0x0000000000000000        0x0 /opt/devkitpro/libnds/lib/libfat.a(file_allocation_table.o)
 .bss           0x0000000000000000        0x0 /opt/devkitpro/libnds/lib/libfat.a(file_allocation_table.o)
 .text          0x0000000000000000        0x0 /opt/devkitpro/libnds/lib/libnds9.a(dynamicArray.o)
 .data          0x0000000000000000        0x0 /opt/devkitpro/libnds/lib/libnds9.a(dynamicArray.o)
 .bss           0x0000000000000000        0x0 /opt/devkitpro/libnds/lib/libnds9.a(dynamicArray.o)
 .text.DynamicArrayDelete
                0x0000000000000000       0x14 /opt/devkitpro/libnds/lib/libnds9.a(dynamicArray.o)
 .text          0x0000000000000000        0x0 /opt/devkitpro/libnds/lib/libnds9.a(videoGL.o)
 .data          0x0000000000000000        0x0 /opt/devkitpro/libnds/lib/libnds9.a(videoGL.o)
 .bss           0x0000000000000000        0x0 /opt/devkitpro/libnds/lib/libnds9.a(videoGL.o)
 .text.glGetGlobals
                0x0000000000000000        0x8 /opt/devkitpro/libnds/lib/libnds9.a(videoGL.o)
 .text.glRotatef32i
                0x0000000000000000      0x2b4 /opt/devkitpro/libnds/lib/libnds9.a(videoGL.o)
 .text.glMaterialf
                0x0000000000000000       0x7c /opt/devkitpro/libnds/lib/libnds9.a(videoGL.o)
 .rodata.glMaterialf
                0x0000000000000000       0x44 /opt/devkitpro/libnds/lib/libnds9.a(videoGL.o)
 .text.glTexCoord2f32
                0x0000000000000000       0x74 /opt/devkitpro/libnds/lib/libnds9.a(videoGL.o)
 .text.vramBlock_Construct
                0x0000000000000000       0x28 /opt/devkitpro/libnds/lib/libnds9.a(videoGL.o)
 .text.vramBlock_terminate
                0x0000000000000000       0x28 /opt/devkitpro/libnds/lib/libnds9.a(videoGL.o)
 .text.vramBlock_Deconstruct
                0x0000000000000000       0x30 /opt/devkitpro/libnds/lib/libnds9.a(videoGL.o)
 .text.vramBlock__deallocateBlock
                0x0000000000000000       0x14 /opt/devkitpro/libnds/lib/libnds9.a(videoGL.o)
 .text.vramBlock_deallocateAll
                0x0000000000000000       0x30 /opt/devkitpro/libnds/lib/libnds9.a(videoGL.o)
 .text.vramBlock_getAddr
                0x0000000000000000       0x10 /opt/devkitpro/libnds/lib/libnds9.a(videoGL.o)
 .text.vramBlock_getSize
                0x0000000000000000       0x14 /opt/devkitpro/libnds/lib/libnds9.a(videoGL.o)
 .text.glResetTextures
                0x0000000000000000       0xd0 /opt/devkitpro/libnds/lib/libnds9.a(videoGL.o)
 .text.removePaletteFromTexture
                0x0000000000000000        0xc /opt/devkitpro/libnds/lib/libnds9.a(videoGL.o)
 .text.glLockVRAMBank
                0x0000000000000000       0xdc /opt/devkitpro/libnds/lib/libnds9.a(videoGL.o)
 .text.glUnlockVRAMBank
                0x0000000000000000       0xdc /opt/devkitpro/libnds/lib/libnds9.a(videoGL.o)
 .text.glColorTableEXT
                0x0000000000000000      0x1d8 /opt/devkitpro/libnds/lib/libnds9.a(videoGL.o)
 .text.glColorSubTableEXT
                0x0000000000000000       0x50 /opt/devkitpro/libnds/lib/libnds9.a(videoGL.o)
 .text.glGetColorTableEXT
                0x0000000000000000       0x3c /opt/devkitpro/libnds/lib/libnds9.a(videoGL.o)
 .text.glAssignColorTable
                0x0000000000000000       0x74 /opt/devkitpro/libnds/lib/libnds9.a(videoGL.o)
 .text.glTexParameter
                0x0000000000000000       0x38 /opt/devkitpro/libnds/lib/libnds9.a(videoGL.o)
 .text.glGetTexturePointer
                0x0000000000000000       0x1c /opt/devkitpro/libnds/lib/libnds9.a(videoGL.o)
 .text.glGetTexParameter
                0x0000000000000000       0x20 /opt/devkitpro/libnds/lib/libnds9.a(videoGL.o)
 .text.glGetColorTableParameterEXT
                0x0000000000000000       0x34 /opt/devkitpro/libnds/lib/libnds9.a(videoGL.o)
 .bss.diffuse_ambient.1
                0x0000000000000000        0x4 /opt/devkitpro/libnds/lib/libnds9.a(videoGL.o)
 .bss.specular_emission.0
                0x0000000000000000        0x4 /opt/devkitpro/libnds/lib/libnds9.a(videoGL.o)
 .text          0x0000000000000000        0x0 /opt/devkitpro/libnds/lib/libnds9.a(keys.o)
 .data          0x0000000000000000        0x0 /opt/devkitpro/libnds/lib/libnds9.a(keys.o)
 .bss           0x0000000000000000        0x0 /opt/devkitpro/libnds/lib/libnds9.a(keys.o)
 .text.keysDown
                0x0000000000000000       0x14 /opt/devkitpro/libnds/lib/libnds9.a(keys.o)
 .text.keysDownRepeat
                0x0000000000000000       0x10 /opt/devkitpro/libnds/lib/libnds9.a(keys.o)
 .text.keysSetRepeat
                0x0000000000000000       0x24 /opt/devkitpro/libnds/lib/libnds9.a(keys.o)
 .text.keysUp   0x0000000000000000       0x18 /opt/devkitpro/libnds/lib/libnds9.a(keys.o)
 .text.keysCurrent
                0x0000000000000000       0x38 /opt/devkitpro/libnds/lib/libnds9.a(keys.o)
 .text          0x0000000000000000        0x0 /opt/devkitpro/libnds/lib/libnds9.a(dldi.o)
 .data          0x0000000000000000        0x0 /opt/devkitpro/libnds/lib/libnds9.a(dldi.o)
 .bss           0x0000000000000000        0x0 /opt/devkitpro/libnds/lib/libnds9.a(dldi.o)
 .text.dldiIsValid
                0x0000000000000000       0x3c /opt/devkitpro/libnds/lib/libnds9.a(dldi.o)
 .text.dldiFixDriverAddresses
                0x0000000000000000       0xd4 /opt/devkitpro/libnds/lib/libnds9.a(dldi.o)
 .text.dldiLoadFromFile
                0x0000000000000000       0xec /opt/devkitpro/libnds/lib/libnds9.a(dldi.o)
 .text.dldiFree
                0x0000000000000000        0x8 /opt/devkitpro/libnds/lib/libnds9.a(dldi.o)
 .data.io_dldi_data
                0x0000000000000000        0x4 /opt/devkitpro/libnds/lib/libnds9.a(dldi.o)
 .rodata.DLDI_MAGIC_NUMBER
                0x0000000000000000        0x4 /opt/devkitpro/libnds/lib/libnds9.a(dldi.o)
 .rodata.DLDI_MAGIC_STRING_BACKWARDS
                0x0000000000000000        0x8 /opt/devkitpro/libnds/lib/libnds9.a(dldi.o)
 .text          0x0000000000000000        0x0 /opt/devkitpro/libnds/lib/libnds9.a(initSystem.o)
 .data          0x0000000000000000        0x0 /opt/devkitpro/libnds/lib/libnds9.a(initSystem.o)
 .bss           0x0000000000000000        0x0 /opt/devkitpro/libnds/lib/libnds9.a(initSystem.o)
 .text          0x0000000000000000        0x0 /opt/devkitpro/libnds/lib/libnds9.a(securearea.o)
 .data          0x0000000000000000        0x0 /opt/devkitpro/libnds/lib/libnds9.a(securearea.o)
 .bss           0x0000000000000000        0x0 /opt/devkitpro/libnds/lib/libnds9.a(securearea.o)
 .text          0x0000000000000000        0x0 /opt/devkitpro/libnds/lib/libnds9.a(interrupts.o)
 .data          0x0000000000000000        0x0 /opt/devkitpro/libnds/lib/libnds9.a(interrupts.o)
 .bss           0x0000000000000000        0x0 /opt/devkitpro/libnds/lib/libnds9.a(interrupts.o)
 .text.irqInitHandler
                0x0000000000000000       0x28 /opt/devkitpro/libnds/lib/libnds9.a(interrupts.o)
 .text.irqDisable
                0x0000000000000000       0x64 /opt/devkitpro/libnds/lib/libnds9.a(interrupts.o)
 .text.irqClear
                0x0000000000000000       0x38 /opt/devkitpro/libnds/lib/libnds9.a(interrupts.o)
 .text          0x0000000000000000        0x0 /opt/devkitpro/libnds/lib/libnds9.a(libnds_exit.arm.o)
 .data          0x0000000000000000        0x0 /opt/devkitpro/libnds/lib/libnds9.a(libnds_exit.arm.o)
 .bss           0x0000000000000000        0x0 /opt/devkitpro/libnds/lib/libnds9.a(libnds_exit.arm.o)
 .text          0x0000000000000000        0x0 /opt/devkitpro/libnds/lib/libnds9.a(card.o)
 .data          0x0000000000000000        0x0 /opt/devkitpro/libnds/lib/libnds9.a(card.o)
 .bss           0x0000000000000000        0x0 /opt/devkitpro/libnds/lib/libnds9.a(card.o)
 .text.cardWriteCommand
                0x0000000000000000       0x28 /opt/devkitpro/libnds/lib/libnds9.a(card.o)
 .text.cardStartTransfer
                0x0000000000000000       0x68 /opt/devkitpro/libnds/lib/libnds9.a(card.o)
 .text.cardWriteAndRead
                0x0000000000000000       0x48 /opt/devkitpro/libnds/lib/libnds9.a(card.o)
 .text.cardReadID
                0x0000000000000000       0x5c /opt/devkitpro/libnds/lib/libnds9.a(card.o)
 .text.cardReset
                0x0000000000000000       0x6c /opt/devkitpro/libnds/lib/libnds9.a(card.o)
 .text.cardReadHeader
                0x0000000000000000       0x9c /opt/devkitpro/libnds/lib/libnds9.a(card.o)
 .rodata        0x0000000000000000       0x10 /opt/devkitpro/libnds/lib/libnds9.a(card.o)
 .text          0x0000000000000000        0x0 /opt/devkitpro/libnds/lib/libnds9.a(fifosystem.o)
 .data          0x0000000000000000        0x0 /opt/devkitpro/libnds/lib/libnds9.a(fifosystem.o)
 .bss           0x0000000000000000        0x0 /opt/devkitpro/libnds/lib/libnds9.a(fifosystem.o)
 .text.fifoSendAddress
                0x0000000000000000       0x38 /opt/devkitpro/libnds/lib/libnds9.a(fifosystem.o)
 .text.fifoGetAddress
                0x0000000000000000       0x7c /opt/devkitpro/libnds/lib/libnds9.a(fifosystem.o)
 .text.fifoSetAddressHandler
                0x0000000000000000       0x78 /opt/devkitpro/libnds/lib/libnds9.a(fifosystem.o)
 .text.fifoCheckAddress
                0x0000000000000000       0x24 /opt/devkitpro/libnds/lib/libnds9.a(fifosystem.o)
 .text.fifoCheckDatamsg
                0x0000000000000000       0x24 /opt/devkitpro/libnds/lib/libnds9.a(fifosystem.o)
 .text.fifoCheckDatamsgLength
                0x0000000000000000       0x30 /opt/devkitpro/libnds/lib/libnds9.a(fifosystem.o)
 .data          0x0000000000000000        0x0 /opt/devkitpro/libnds/lib/libnds9.a(dldi_stub.o)
 .bss           0x0000000000000000        0x0 /opt/devkitpro/libnds/lib/libnds9.a(dldi_stub.o)
 .text          0x0000000000000000        0x0 /opt/devkitpro/libnds/lib/libnds9.a(mpu_setup.o)
 .bss           0x0000000000000000        0x0 /opt/devkitpro/libnds/lib/libnds9.a(mpu_setup.o)
 .text.memCached
                0x0000000000000000       0x20 /opt/devkitpro/libnds/lib/libnds9.a(mpu_setup.o)
 .text          0x0000000000000000        0x0 /opt/devkitpro/libnds/lib/libnds9.a(IntrWait.o)
 .data          0x0000000000000000        0x0 /opt/devkitpro/libnds/lib/libnds9.a(IntrWait.o)
 .bss           0x0000000000000000        0x0 /opt/devkitpro/libnds/lib/libnds9.a(IntrWait.o)
 .text          0x0000000000000000        0x0 /opt/devkitpro/libnds/lib/libnds9.a(cpu_clock.o)
 .data          0x0000000000000000        0x0 /opt/devkitpro/libnds/lib/libnds9.a(cpu_clock.o)
 .bss           0x0000000000000000        0x0 /opt/devkitpro/libnds/lib/libnds9.a(cpu_clock.o)
 .itcm          0x0000000000000000        0x0 /opt/devkitpro/libnds/lib/libnds9.a(cpu_clock.o)
 .text          0x0000000000000000        0x0 /opt/devkitpro/libnds/lib/libnds9.a(interruptDispatcher.o)
 .data          0x0000000000000000        0x0 /opt/devkitpro/libnds/lib/libnds9.a(interruptDispatcher.o)
 .bss           0x0000000000000000        0x0 /opt/devkitpro/libnds/lib/libnds9.a(interruptDispatcher.o)
 .text          0x0000000000000000        0x0 /opt/devkitpro/libnds/lib/libnds9.a(biosCalls.o)
 .data          0x0000000000000000        0x0 /opt/devkitpro/libnds/lib/libnds9.a(biosCalls.o)
 .bss           0x0000000000000000        0x0 /opt/devkitpro/libnds/lib/libnds9.a(biosCalls.o)
 .text.swiSleep
                0x0000000000000000        0x4 /opt/devkitpro/libnds/lib/libnds9.a(biosCalls.o)
 .text.swiChangeSoundBias
                0x0000000000000000        0x4 /opt/devkitpro/libnds/lib/libnds9.a(biosCalls.o)
 .text.swiDivide
                0x0000000000000000        0x4 /opt/devkitpro/libnds/lib/libnds9.a(biosCalls.o)
 .text.swiRemainder
                0x0000000000000000        0x8 /opt/devkitpro/libnds/lib/libnds9.a(biosCalls.o)
 .text.swiDivMod
                0x0000000000000000        0xc /opt/devkitpro/libnds/lib/libnds9.a(biosCalls.o)
 .text.swiCopy  0x0000000000000000        0x4 /opt/devkitpro/libnds/lib/libnds9.a(biosCalls.o)
 .text.swiFastCopy
                0x0000000000000000        0x4 /opt/devkitpro/libnds/lib/libnds9.a(biosCalls.o)
 .text.swiSqrt  0x0000000000000000        0x4 /opt/devkitpro/libnds/lib/libnds9.a(biosCalls.o)
 .text.swiCRC16
                0x0000000000000000        0x4 /opt/devkitpro/libnds/lib/libnds9.a(biosCalls.o)
 .text.swiIsDebugger
                0x0000000000000000        0x4 /opt/devkitpro/libnds/lib/libnds9.a(biosCalls.o)
 .text.swiUnpackBits
                0x0000000000000000        0x4 /opt/devkitpro/libnds/lib/libnds9.a(biosCalls.o)
 .text.swiDecompressLZSSWram
                0x0000000000000000        0x4 /opt/devkitpro/libnds/lib/libnds9.a(biosCalls.o)
 .text.swiDecompressLZSSVramNTR
                0x0000000000000000        0x4 /opt/devkitpro/libnds/lib/libnds9.a(biosCalls.o)
 .text.swiDecompressLZSSVramTWL
                0x0000000000000000        0x4 /opt/devkitpro/libnds/lib/libnds9.a(biosCalls.o)
 .text.swiDecompressHuffman
                0x0000000000000000        0x4 /opt/devkitpro/libnds/lib/libnds9.a(biosCalls.o)
 .text.swiDecompressRLEWram
                0x0000000000000000        0x4 /opt/devkitpro/libnds/lib/libnds9.a(biosCalls.o)
 .text.swiDecompressRLEVram
                0x0000000000000000        0x4 /opt/devkitpro/libnds/lib/libnds9.a(biosCalls.o)
 .text.swiWaitForIRQ
                0x0000000000000000        0x4 /opt/devkitpro/libnds/lib/libnds9.a(biosCalls.o)
 .text.swiDecodeDelta8
                0x0000000000000000        0x4 /opt/devkitpro/libnds/lib/libnds9.a(biosCalls.o)
 .text.swiDecodeDelta16
                0x0000000000000000        0x4 /opt/devkitpro/libnds/lib/libnds9.a(biosCalls.o)
 .text.swiSetHaltCR
                0x0000000000000000        0x4 /opt/devkitpro/libnds/lib/libnds9.a(biosCalls.o)
 .text          0x0000000000000000        0x0 /opt/devkitpro/libnds/lib/libnds9.a(swiSoftReset.o)
 .data          0x0000000000000000        0x0 /opt/devkitpro/libnds/lib/libnds9.a(swiSoftReset.o)
 .bss           0x0000000000000000        0x0 /opt/devkitpro/libnds/lib/libnds9.a(swiSoftReset.o)
 .text          0x0000000000000000        0x0 /opt/devkitpro/libnds/lib/libnds9.a(trig.o)
 .data          0x0000000000000000        0x0 /opt/devkitpro/libnds/lib/libnds9.a(trig.o)
 .bss           0x0000000000000000        0x0 /opt/devkitpro/libnds/lib/libnds9.a(trig.o)
 .text.asinComp
                0x0000000000000000       0x24 /opt/devkitpro/libnds/lib/libnds9.a(trig.o)
 .text.sinLutLookup
                0x0000000000000000       0x4c /opt/devkitpro/libnds/lib/libnds9.a(trig.o)
 .text.sinLerp  0x0000000000000000       0x40 /opt/devkitpro/libnds/lib/libnds9.a(trig.o)
 .text.cosLerp  0x0000000000000000       0x4c /opt/devkitpro/libnds/lib/libnds9.a(trig.o)
 .text.tanLutLookup
                0x0000000000000000       0x30 /opt/devkitpro/libnds/lib/libnds9.a(trig.o)
 .text.tanLerp  0x0000000000000000       0xb0 /opt/devkitpro/libnds/lib/libnds9.a(trig.o)
 .text.asinLerp
                0x0000000000000000       0x98 /opt/devkitpro/libnds/lib/libnds9.a(trig.o)
 .text.acosLerp
                0x0000000000000000       0xa4 /opt/devkitpro/libnds/lib/libnds9.a(trig.o)
 .text.atanComp
                0x0000000000000000       0x24 /opt/devkitpro/libnds/lib/libnds9.a(trig.o)
 .rodata.SIN_LUT
                0x0000000000000000      0x102 /opt/devkitpro/libnds/lib/libnds9.a(trig.o)
 .rodata.TAN_LUT
                0x0000000000000000      0x204 /opt/devkitpro/libnds/lib/libnds9.a(trig.o)
 .debug_info    0x0000000000000000      0x793 /opt/devkitpro/libnds/lib/libnds9.a(trig.o)
 .debug_abbrev  0x0000000000000000      0x26e /opt/devkitpro/libnds/lib/libnds9.a(trig.o)
 .debug_loclists
                0x0000000000000000      0x779 /opt/devkitpro/libnds/lib/libnds9.a(trig.o)
 .debug_aranges
                0x0000000000000000       0x60 /opt/devkitpro/libnds/lib/libnds9.a(trig.o)
 .debug_rnglists
                0x0000000000000000       0x9d /opt/devkitpro/libnds/lib/libnds9.a(trig.o)
 .debug_line    0x0000000000000000      0x837 /opt/devkitpro/libnds/lib/libnds9.a(trig.o)
 .debug_str     0x0000000000000000      0x2fc /opt/devkitpro/libnds/lib/libnds9.a(trig.o)
 .comment       0x0000000000000000       0x24 /opt/devkitpro/libnds/lib/libnds9.a(trig.o)
 .debug_frame   0x0000000000000000       0xd8 /opt/devkitpro/libnds/lib/libnds9.a(trig.o)
 .ARM.attributes
                0x0000000000000000       0x2b /opt/devkitpro/libnds/lib/libnds9.a(trig.o)
 .text          0x0000000000000000        0x0 /opt/devkitpro/libnds/lib/libnds9.a(video.o)
 .data          0x0000000000000000        0x0 /opt/devkitpro/libnds/lib/libnds9.a(video.o)
 .bss           0x0000000000000000        0x0 /opt/devkitpro/libnds/lib/libnds9.a(video.o)
 .text.vramSetPrimaryBanks
                0x0000000000000000       0x44 /opt/devkitpro/libnds/lib/libnds9.a(video.o)
 .text.vramSetMainBanks
                0x0000000000000000       0x44 /opt/devkitpro/libnds/lib/libnds9.a(video.o)
 .text.vramSetBanks_EFG
                0x0000000000000000       0x38 /opt/devkitpro/libnds/lib/libnds9.a(video.o)
 .text.vramRestoreMainBanks
                0x0000000000000000        0xc /opt/devkitpro/libnds/lib/libnds9.a(video.o)
 .text.vramRestoreBanks_EFG
                0x0000000000000000        0xc /opt/devkitpro/libnds/lib/libnds9.a(video.o)
 .text.setBrightness
                0x0000000000000000       0x40 /opt/devkitpro/libnds/lib/libnds9.a(video.o)
 .text          0x0000000000000000        0x0 /opt/devkitpro/libnds/lib/libnds9.a(system.o)
 .data          0x0000000000000000        0x0 /opt/devkitpro/libnds/lib/libnds9.a(system.o)
 .bss           0x0000000000000000        0x0 /opt/devkitpro/libnds/lib/libnds9.a(system.o)
 .text.setSDcallback
                0x0000000000000000        0xc /opt/devkitpro/libnds/lib/libnds9.a(system.o)
 .text.systemSleep
                0x0000000000000000       0x18 /opt/devkitpro/libnds/lib/libnds9.a(system.o)
 .text.powerOff
                0x0000000000000000       0x28 /opt/devkitpro/libnds/lib/libnds9.a(system.o)
 .text.ledBlink
                0x0000000000000000       0x10 /opt/devkitpro/libnds/lib/libnds9.a(system.o)
 .text.getBatteryLevel
                0x0000000000000000       0x20 /opt/devkitpro/libnds/lib/libnds9.a(system.o)
 .text.enableSlot1
                0x0000000000000000       0x1c /opt/devkitpro/libnds/lib/libnds9.a(system.o)
 .text.disableSlot1
                0x0000000000000000       0x1c /opt/devkitpro/libnds/lib/libnds9.a(system.o)
 .text          0x0000000000000000        0x0 /opt/devkitpro/libnds/lib/libnds9.a(sd.twl.o)
 .data          0x0000000000000000        0x0 /opt/devkitpro/libnds/lib/libnds9.a(sd.twl.o)
 .bss           0x0000000000000000        0x0 /opt/devkitpro/libnds/lib/libnds9.a(sd.twl.o)
 .text          0x0000000000000000        0x0 /opt/devkitpro/libnds/lib/libnds9.a(dcache.o)
 .data          0x0000000000000000        0x0 /opt/devkitpro/libnds/lib/libnds9.a(dcache.o)
 .bss           0x0000000000000000        0x0 /opt/devkitpro/libnds/lib/libnds9.a(dcache.o)
 .text.DC_FlushAll
                0x0000000000000000       0x2c /opt/devkitpro/libnds/lib/libnds9.a(dcache.o)
 .text.DC_InvalidateAll
                0x0000000000000000        0xc /opt/devkitpro/libnds/lib/libnds9.a(dcache.o)
 .text.DC_InvalidateRange
                0x0000000000000000       0x2c /opt/devkitpro/libnds/lib/libnds9.a(dcache.o)
 .text          0x0000000000000000      0x198 /opt/devkitpro/devkitARM/bin/../lib/gcc/arm-none-eabi/12.2.0/libgcc.a(_arm_mulsf3.o)
 .data          0x0000000000000000        0x0 /opt/devkitpro/devkitARM/bin/../lib/gcc/arm-none-eabi/12.2.0/libgcc.a(_arm_mulsf3.o)
 .bss           0x0000000000000000        0x0 /opt/devkitpro/devkitARM/bin/../lib/gcc/arm-none-eabi/12.2.0/libgcc.a(_arm_mulsf3.o)
 .ARM.attributes
                0x0000000000000000       0x1c /opt/devkitpro/devkitARM/bin/../lib/gcc/arm-none-eabi/12.2.0/libgcc.a(_arm_mulsf3.o)
 .data          0x0000000000000000        0x0 /opt/devkitpro/devkitARM/bin/../lib/gcc/arm-none-eabi/12.2.0/libgcc.a(_udivsi3.o)
 .bss           0x0000000000000000        0x0 /opt/devkitpro/devkitARM/bin/../lib/gcc/arm-none-eabi/12.2.0/libgcc.a(_udivsi3.o)
 .data          0x0000000000000000        0x0 /opt/devkitpro/devkitARM/bin/../lib/gcc/arm-none-eabi/12.2.0/libgcc.a(_divsi3.o)
 .bss           0x0000000000000000        0x0 /opt/devkitpro/devkitARM/bin/../lib/gcc/arm-none-eabi/12.2.0/libgcc.a(_divsi3.o)
 .data          0x0000000000000000        0x0 /opt/devkitpro/devkitARM/bin/../lib/gcc/arm-none-eabi/12.2.0/libgcc.a(_dvmd_tls.o)
 .bss           0x0000000000000000        0x0 /opt/devkitpro/devkitARM/bin/../lib/gcc/arm-none-eabi/12.2.0/libgcc.a(_dvmd_tls.o)
 .data          0x0000000000000000        0x0 /opt/devkitpro/devkitARM/bin/../lib/gcc/arm-none-eabi/12.2.0/libgcc.a(_arm_addsubsf3.o)
 .bss           0x0000000000000000        0x0 /opt/devkitpro/devkitARM/bin/../lib/gcc/arm-none-eabi/12.2.0/libgcc.a(_arm_addsubsf3.o)
 .data          0x0000000000000000        0x0 /opt/devkitpro/devkitARM/bin/../lib/gcc/arm-none-eabi/12.2.0/libgcc.a(_arm_muldivsf3.o)
 .bss           0x0000000000000000        0x0 /opt/devkitpro/devkitARM/bin/../lib/gcc/arm-none-eabi/12.2.0/libgcc.a(_arm_muldivsf3.o)
 .data          0x0000000000000000        0x0 /opt/devkitpro/devkitARM/bin/../lib/gcc/arm-none-eabi/12.2.0/libgcc.a(_arm_fixsfsi.o)
 .bss           0x0000000000000000        0x0 /opt/devkitpro/devkitARM/bin/../lib/gcc/arm-none-eabi/12.2.0/libgcc.a(_arm_fixsfsi.o)
 .data          0x0000000000000000        0x0 /opt/devkitpro/devkitARM/bin/../lib/gcc/arm-none-eabi/12.2.0/libgcc.a(_arm_fixunssfsi.o)
 .bss           0x0000000000000000        0x0 /opt/devkitpro/devkitARM/bin/../lib/gcc/arm-none-eabi/12.2.0/libgcc.a(_arm_fixunssfsi.o)
 .data          0x0000000000000000        0x0 /opt/devkitpro/devkitARM/bin/../lib/gcc/arm-none-eabi/12.2.0/libgcc.a(_aeabi_ldivmod.o)
 .bss           0x0000000000000000        0x0 /opt/devkitpro/devkitARM/bin/../lib/gcc/arm-none-eabi/12.2.0/libgcc.a(_aeabi_ldivmod.o)
 .text          0x0000000000000000        0x0 /opt/devkitpro/devkitARM/bin/../lib/gcc/arm-none-eabi/12.2.0/libgcc.a(_muldi3.o)
 .data          0x0000000000000000        0x0 /opt/devkitpro/devkitARM/bin/../lib/gcc/arm-none-eabi/12.2.0/libgcc.a(_muldi3.o)
 .bss           0x0000000000000000        0x0 /opt/devkitpro/devkitARM/bin/../lib/gcc/arm-none-eabi/12.2.0/libgcc.a(_muldi3.o)
 .text          0x0000000000000000        0x0 /opt/devkitpro/devkitARM/bin/../lib/gcc/arm-none-eabi/12.2.0/libgcc.a(_udivmoddi4.o)
 .data          0x0000000000000000        0x0 /opt/devkitpro/devkitARM/bin/../lib/gcc/arm-none-eabi/12.2.0/libgcc.a(_udivmoddi4.o)
 .bss           0x0000000000000000        0x0 /opt/devkitpro/devkitARM/bin/../lib/gcc/arm-none-eabi/12.2.0/libgcc.a(_udivmoddi4.o)
 .data          0x0000000000000000        0x0 /opt/devkitpro/devkitARM/bin/../lib/gcc/arm-none-eabi/12.2.0/libgcc.a(_clzdi2.o)
 .bss           0x0000000000000000        0x0 /opt/devkitpro/devkitARM/bin/../lib/gcc/arm-none-eabi/12.2.0/libgcc.a(_clzdi2.o)
 .data          0x0000000000000000        0x0 /opt/devkitpro/devkitARM/bin/../lib/gcc/arm-none-eabi/12.2.0/libgcc.a(_clzsi2.o)
 .bss           0x0000000000000000        0x0 /opt/devkitpro/devkitARM/bin/../lib/gcc/arm-none-eabi/12.2.0/libgcc.a(_clzsi2.o)
 .text          0x0000000000000000        0x0 /opt/devkitpro/devkitARM/bin/../lib/gcc/arm-none-eabi/12.2.0/../../../../arm-none-eabi/lib/libg.a(lib_a-assert.o)
 .data          0x0000000000000000        0x0 /opt/devkitpro/devkitARM/bin/../lib/gcc/arm-none-eabi/12.2.0/../../../../arm-none-eabi/lib/libg.a(lib_a-assert.o)
 .bss           0x0000000000000000        0x0 /opt/devkitpro/devkitARM/bin/../lib/gcc/arm-none-eabi/12.2.0/../../../../arm-none-eabi/lib/libg.a(lib_a-assert.o)
 .text.__assert
                0x0000000000000000       0x10 /opt/devkitpro/devkitARM/bin/../lib/gcc/arm-none-eabi/12.2.0/../../../../arm-none-eabi/lib/libg.a(lib_a-assert.o)
 .text          0x0000000000000000        0x0 /opt/devkitpro/devkitARM/bin/../lib/gcc/arm-none-eabi/12.2.0/../../../../arm-none-eabi/lib/libg.a(lib_a-atoi.o)
 .data          0x0000000000000000        0x0 /opt/devkitpro/devkitARM/bin/../lib/gcc/arm-none-eabi/12.2.0/../../../../arm-none-eabi/lib/libg.a(lib_a-atoi.o)
 .bss           0x0000000000000000        0x0 /opt/devkitpro/devkitARM/bin/../lib/gcc/arm-none-eabi/12.2.0/../../../../arm-none-eabi/lib/libg.a(lib_a-atoi.o)
 .text._atoi_r  0x0000000000000000       0x18 /opt/devkitpro/devkitARM/bin/../lib/gcc/arm-none-eabi/12.2.0/../../../../arm-none-eabi/lib/libg.a(lib_a-atoi.o)
 .text          0x0000000000000000        0x0 /opt/devkitpro/devkitARM/bin/../lib/gcc/arm-none-eabi/12.2.0/../../../../arm-none-eabi/lib/libg.a(lib_a-bsearch.o)
 .data          0x0000000000000000        0x0 /opt/devkitpro/devkitARM/bin/../lib/gcc/arm-none-eabi/12.2.0/../../../../arm-none-eabi/lib/libg.a(lib_a-bsearch.o)
 .bss           0x0000000000000000        0x0 /opt/devkitpro/devkitARM/bin/../lib/gcc/arm-none-eabi/12.2.0/../../../../arm-none-eabi/lib/libg.a(lib_a-bsearch.o)
 .text.bsearch  0x0000000000000000       0x80 /opt/devkitpro/devkitARM/bin/../lib/gcc/arm-none-eabi/12.2.0/../../../../arm-none-eabi/lib/libg.a(lib_a-bsearch.o)
 .comment       0x0000000000000000       0x24 /opt/devkitpro/devkitARM/bin/../lib/gcc/arm-none-eabi/12.2.0/../../../../arm-none-eabi/lib/libg.a(lib_a-bsearch.o)
 .ARM.attributes
                0x0000000000000000       0x2a /opt/devkitpro/devkitARM/bin/../lib/gcc/arm-none-eabi/12.2.0/../../../../arm-none-eabi/lib/libg.a(lib_a-bsearch.o)
 .text          0x0000000000000000        0x0 /opt/devkitpro/devkitARM/bin/../lib/gcc/arm-none-eabi/12.2.0/../../../../arm-none-eabi/lib/libg.a(lib_a-calloc.o)
 .data          0x0000000000000000        0x0 /opt/devkitpro/devkitARM/bin/../lib/gcc/arm-none-eabi/12.2.0/../../../../arm-none-eabi/lib/libg.a(lib_a-calloc.o)
 .bss           0x0000000000000000        0x0 /opt/devkitpro/devkitARM/bin/../lib/gcc/arm-none-eabi/12.2.0/../../../../arm-none-eabi/lib/libg.a(lib_a-calloc.o)
 .text          0x0000000000000000        0x0 /opt/devkitpro/devkitARM/bin/../lib/gcc/arm-none-eabi/12.2.0/../../../../arm-none-eabi/lib/libg.a(lib_a-callocr.o)
 .data          0x0000000000000000        0x0 /opt/devkitpro/devkitARM/bin/../lib/gcc/arm-none-eabi/12.2.0/../../../../arm-none-eabi/lib/libg.a(lib_a-callocr.o)
 .bss           0x0000000000000000        0x0 /opt/devkitpro/devkitARM/bin/../lib/gcc/arm-none-eabi/12.2.0/../../../../arm-none-eabi/lib/libg.a(lib_a-callocr.o)
 .text          0x0000000000000000        0x0 /opt/devkitpro/devkitARM/bin/../lib/gcc/arm-none-eabi/12.2.0/../../../../arm-none-eabi/lib/libg.a(lib_a-ctype_.o)
 .data          0x0000000000000000        0x0 /opt/devkitpro/devkitARM/bin/../lib/gcc/arm-none-eabi/12.2.0/../../../../arm-none-eabi/lib/libg.a(lib_a-ctype_.o)
 .bss           0x0000000000000000        0x0 /opt/devkitpro/devkitARM/bin/../lib/gcc/arm-none-eabi/12.2.0/../../../../arm-none-eabi/lib/libg.a(lib_a-ctype_.o)
 .text.__set_ctype
                0x0000000000000000       0x10 /opt/devkitpro/devkitARM/bin/../lib/gcc/arm-none-eabi/12.2.0/../../../../arm-none-eabi/lib/libg.a(lib_a-ctype_.o)
 .text          0x0000000000000000        0x0 /opt/devkitpro/devkitARM/bin/../lib/gcc/arm-none-eabi/12.2.0/../../../../arm-none-eabi/lib/libg.a(lib_a-errno.o)
 .data          0x0000000000000000        0x0 /opt/devkitpro/devkitARM/bin/../lib/gcc/arm-none-eabi/12.2.0/../../../../arm-none-eabi/lib/libg.a(lib_a-errno.o)
 .bss           0x0000000000000000        0x0 /opt/devkitpro/devkitARM/bin/../lib/gcc/arm-none-eabi/12.2.0/../../../../arm-none-eabi/lib/libg.a(lib_a-errno.o)
 .text          0x0000000000000000        0x0 /opt/devkitpro/devkitARM/bin/../lib/gcc/arm-none-eabi/12.2.0/../../../../arm-none-eabi/lib/libg.a(lib_a-exit.o)
 .data          0x0000000000000000        0x0 /opt/devkitpro/devkitARM/bin/../lib/gcc/arm-none-eabi/12.2.0/../../../../arm-none-eabi/lib/libg.a(lib_a-exit.o)
 .bss           0x0000000000000000        0x0 /opt/devkitpro/devkitARM/bin/../lib/gcc/arm-none-eabi/12.2.0/../../../../arm-none-eabi/lib/libg.a(lib_a-exit.o)
 .text          0x0000000000000000        0x0 /opt/devkitpro/devkitARM/bin/../lib/gcc/arm-none-eabi/12.2.0/../../../../arm-none-eabi/lib/libg.a(lib_a-fclose.o)
 .data          0x0000000000000000        0x0 /opt/devkitpro/devkitARM/bin/../lib/gcc/arm-none-eabi/12.2.0/../../../../arm-none-eabi/lib/libg.a(lib_a-fclose.o)
 .bss           0x0000000000000000        0x0 /opt/devkitpro/devkitARM/bin/../lib/gcc/arm-none-eabi/12.2.0/../../../../arm-none-eabi/lib/libg.a(lib_a-fclose.o)
 .text          0x0000000000000000        0x0 /opt/devkitpro/devkitARM/bin/../lib/gcc/arm-none-eabi/12.2.0/../../../../arm-none-eabi/lib/libg.a(lib_a-fflush.o)
 .data          0x0000000000000000        0x0 /opt/devkitpro/devkitARM/bin/../lib/gcc/arm-none-eabi/12.2.0/../../../../arm-none-eabi/lib/libg.a(lib_a-fflush.o)
 .bss           0x0000000000000000        0x0 /opt/devkitpro/devkitARM/bin/../lib/gcc/arm-none-eabi/12.2.0/../../../../arm-none-eabi/lib/libg.a(lib_a-fflush.o)
 .text          0x0000000000000000        0x0 /opt/devkitpro/devkitARM/bin/../lib/gcc/arm-none-eabi/12.2.0/../../../../arm-none-eabi/lib/libg.a(lib_a-findfp.o)
 .data          0x0000000000000000        0x0 /opt/devkitpro/devkitARM/bin/../lib/gcc/arm-none-eabi/12.2.0/../../../../arm-none-eabi/lib/libg.a(lib_a-findfp.o)
 .bss           0x0000000000000000        0x0 /opt/devkitpro/devkitARM/bin/../lib/gcc/arm-none-eabi/12.2.0/../../../../arm-none-eabi/lib/libg.a(lib_a-findfp.o)
 .text.__fp_lock
                0x0000000000000000       0x34 /opt/devkitpro/devkitARM/bin/../lib/gcc/arm-none-eabi/12.2.0/../../../../arm-none-eabi/lib/libg.a(lib_a-findfp.o)
 .text.__fp_unlock
                0x0000000000000000       0x34 /opt/devkitpro/devkitARM/bin/../lib/gcc/arm-none-eabi/12.2.0/../../../../arm-none-eabi/lib/libg.a(lib_a-findfp.o)
 .text.__sfmoreglue
                0x0000000000000000       0x4c /opt/devkitpro/devkitARM/bin/../lib/gcc/arm-none-eabi/12.2.0/../../../../arm-none-eabi/lib/libg.a(lib_a-findfp.o)
 .text._cleanup
                0x0000000000000000       0x24 /opt/devkitpro/devkitARM/bin/../lib/gcc/arm-none-eabi/12.2.0/../../../../arm-none-eabi/lib/libg.a(lib_a-findfp.o)
 .text.__sinit_lock_acquire
                0x0000000000000000       0x18 /opt/devkitpro/devkitARM/bin/../lib/gcc/arm-none-eabi/12.2.0/../../../../arm-none-eabi/lib/libg.a(lib_a-findfp.o)
 .text.__sinit_lock_release
                0x0000000000000000       0x18 /opt/devkitpro/devkitARM/bin/../lib/gcc/arm-none-eabi/12.2.0/../../../../arm-none-eabi/lib/libg.a(lib_a-findfp.o)
 .text.__fp_lock_all
                0x0000000000000000       0x28 /opt/devkitpro/devkitARM/bin/../lib/gcc/arm-none-eabi/12.2.0/../../../../arm-none-eabi/lib/libg.a(lib_a-findfp.o)
 .text.__fp_unlock_all
                0x0000000000000000       0x28 /opt/devkitpro/devkitARM/bin/../lib/gcc/arm-none-eabi/12.2.0/../../../../arm-none-eabi/lib/libg.a(lib_a-findfp.o)
 .text          0x0000000000000000        0x0 /opt/devkitpro/devkitARM/bin/../lib/gcc/arm-none-eabi/12.2.0/../../../../arm-none-eabi/lib/libg.a(lib_a-fiprintf.o)
 .data          0x0000000000000000        0x0 /opt/devkitpro/devkitARM/bin/../lib/gcc/arm-none-eabi/12.2.0/../../../../arm-none-eabi/lib/libg.a(lib_a-fiprintf.o)
 .bss           0x0000000000000000        0x0 /opt/devkitpro/devkitARM/bin/../lib/gcc/arm-none-eabi/12.2.0/../../../../arm-none-eabi/lib/libg.a(lib_a-fiprintf.o)
 .text._fiprintf_r
                0x0000000000000000       0x2c /opt/devkitpro/devkitARM/bin/../lib/gcc/arm-none-eabi/12.2.0/../../../../arm-none-eabi/lib/libg.a(lib_a-fiprintf.o)
 .text          0x0000000000000000        0x0 /opt/devkitpro/devkitARM/bin/../lib/gcc/arm-none-eabi/12.2.0/../../../../arm-none-eabi/lib/libg.a(lib_a-fopen.o)
 .data          0x0000000000000000        0x0 /opt/devkitpro/devkitARM/bin/../lib/gcc/arm-none-eabi/12.2.0/../../../../arm-none-eabi/lib/libg.a(lib_a-fopen.o)
 .bss           0x0000000000000000        0x0 /opt/devkitpro/devkitARM/bin/../lib/gcc/arm-none-eabi/12.2.0/../../../../arm-none-eabi/lib/libg.a(lib_a-fopen.o)
 .text          0x0000000000000000        0x0 /opt/devkitpro/devkitARM/bin/../lib/gcc/arm-none-eabi/12.2.0/../../../../arm-none-eabi/lib/libg.a(lib_a-fread.o)
 .data          0x0000000000000000        0x0 /opt/devkitpro/devkitARM/bin/../lib/gcc/arm-none-eabi/12.2.0/../../../../arm-none-eabi/lib/libg.a(lib_a-fread.o)
 .bss           0x0000000000000000        0x0 /opt/devkitpro/devkitARM/bin/../lib/gcc/arm-none-eabi/12.2.0/../../../../arm-none-eabi/lib/libg.a(lib_a-fread.o)
 .text          0x0000000000000000        0x0 /opt/devkitpro/devkitARM/bin/../lib/gcc/arm-none-eabi/12.2.0/../../../../arm-none-eabi/lib/libg.a(lib_a-freer.o)
 .data          0x0000000000000000        0x0 /opt/devkitpro/devkitARM/bin/../lib/gcc/arm-none-eabi/12.2.0/../../../../arm-none-eabi/lib/libg.a(lib_a-freer.o)
 .bss           0x0000000000000000        0x0 /opt/devkitpro/devkitARM/bin/../lib/gcc/arm-none-eabi/12.2.0/../../../../arm-none-eabi/lib/libg.a(lib_a-freer.o)
 .text          0x0000000000000000        0x0 /opt/devkitpro/devkitARM/bin/../lib/gcc/arm-none-eabi/12.2.0/../../../../arm-none-eabi/lib/libg.a(lib_a-fseek.o)
 .data          0x0000000000000000        0x0 /opt/devkitpro/devkitARM/bin/../lib/gcc/arm-none-eabi/12.2.0/../../../../arm-none-eabi/lib/libg.a(lib_a-fseek.o)
 .bss           0x0000000000000000        0x0 /opt/devkitpro/devkitARM/bin/../lib/gcc/arm-none-eabi/12.2.0/../../../../arm-none-eabi/lib/libg.a(lib_a-fseek.o)
 .text          0x0000000000000000        0x0 /opt/devkitpro/devkitARM/bin/../lib/gcc/arm-none-eabi/12.2.0/../../../../arm-none-eabi/lib/libg.a(lib_a-fseeko.o)
 .data          0x0000000000000000        0x0 /opt/devkitpro/devkitARM/bin/../lib/gcc/arm-none-eabi/12.2.0/../../../../arm-none-eabi/lib/libg.a(lib_a-fseeko.o)
 .bss           0x0000000000000000        0x0 /opt/devkitpro/devkitARM/bin/../lib/gcc/arm-none-eabi/12.2.0/../../../../arm-none-eabi/lib/libg.a(lib_a-fseeko.o)
 .text.fseeko   0x0000000000000000       0x30 /opt/devkitpro/devkitARM/bin/../lib/gcc/arm-none-eabi/12.2.0/../../../../arm-none-eabi/lib/libg.a(lib_a-fseeko.o)
 .text          0x0000000000000000        0x0 /opt/devkitpro/devkitARM/bin/../lib/gcc/arm-none-eabi/12.2.0/../../../../arm-none-eabi/lib/libg.a(lib_a-fwalk.o)
 .data          0x0000000000000000        0x0 /opt/devkitpro/devkitARM/bin/../lib/gcc/arm-none-eabi/12.2.0/../../../../arm-none-eabi/lib/libg.a(lib_a-fwalk.o)
 .bss           0x0000000000000000        0x0 /opt/devkitpro/devkitARM/bin/../lib/gcc/arm-none-eabi/12.2.0/../../../../arm-none-eabi/lib/libg.a(lib_a-fwalk.o)
 .text          0x0000000000000000        0x0 /opt/devkitpro/devkitARM/bin/../lib/gcc/arm-none-eabi/12.2.0/../../../../arm-none-eabi/lib/libg.a(lib_a-impure.o)
 .data          0x0000000000000000        0x0 /opt/devkitpro/devkitARM/bin/../lib/gcc/arm-none-eabi/12.2.0/../../../../arm-none-eabi/lib/libg.a(lib_a-impure.o)
 .bss           0x0000000000000000        0x0 /opt/devkitpro/devkitARM/bin/../lib/gcc/arm-none-eabi/12.2.0/../../../../arm-none-eabi/lib/libg.a(lib_a-impure.o)
 .text          0x0000000000000000        0x0 /opt/devkitpro/devkitARM/bin/../lib/gcc/arm-none-eabi/12.2.0/../../../../arm-none-eabi/lib/libg.a(lib_a-init.o)
 .data          0x0000000000000000        0x0 /opt/devkitpro/devkitARM/bin/../lib/gcc/arm-none-eabi/12.2.0/../../../../arm-none-eabi/lib/libg.a(lib_a-init.o)
 .bss           0x0000000000000000        0x0 /opt/devkitpro/devkitARM/bin/../lib/gcc/arm-none-eabi/12.2.0/../../../../arm-none-eabi/lib/libg.a(lib_a-init.o)
 .text          0x0000000000000000        0x0 /opt/devkitpro/devkitARM/bin/../lib/gcc/arm-none-eabi/12.2.0/../../../../arm-none-eabi/lib/libg.a(lib_a-lcltime_r.o)
 .data          0x0000000000000000        0x0 /opt/devkitpro/devkitARM/bin/../lib/gcc/arm-none-eabi/12.2.0/../../../../arm-none-eabi/lib/libg.a(lib_a-lcltime_r.o)
 .bss           0x0000000000000000        0x0 /opt/devkitpro/devkitARM/bin/../lib/gcc/arm-none-eabi/12.2.0/../../../../arm-none-eabi/lib/libg.a(lib_a-lcltime_r.o)
 .text          0x0000000000000000        0x0 /opt/devkitpro/devkitARM/bin/../lib/gcc/arm-none-eabi/12.2.0/../../../../arm-none-eabi/lib/libg.a(lib_a-locale.o)
 .data          0x0000000000000000        0x0 /opt/devkitpro/devkitARM/bin/../lib/gcc/arm-none-eabi/12.2.0/../../../../arm-none-eabi/lib/libg.a(lib_a-locale.o)
 .bss           0x0000000000000000        0x0 /opt/devkitpro/devkitARM/bin/../lib/gcc/arm-none-eabi/12.2.0/../../../../arm-none-eabi/lib/libg.a(lib_a-locale.o)
 .rodata.currentlocale.str1.4
                0x0000000000000000        0x2 /opt/devkitpro/devkitARM/bin/../lib/gcc/arm-none-eabi/12.2.0/../../../../arm-none-eabi/lib/libg.a(lib_a-locale.o)
 .text.currentlocale
                0x0000000000000000       0x90 /opt/devkitpro/devkitARM/bin/../lib/gcc/arm-none-eabi/12.2.0/../../../../arm-none-eabi/lib/libg.a(lib_a-locale.o)
 .rodata.__loadlocale.str1.4
                0x0000000000000000       0xd6 /opt/devkitpro/devkitARM/bin/../lib/gcc/arm-none-eabi/12.2.0/../../../../arm-none-eabi/lib/libg.a(lib_a-locale.o)
 .text.__loadlocale
                0x0000000000000000      0x840 /opt/devkitpro/devkitARM/bin/../lib/gcc/arm-none-eabi/12.2.0/../../../../arm-none-eabi/lib/libg.a(lib_a-locale.o)
 .rodata.__get_locale_env.str1.4
                0x0000000000000000        0xd /opt/devkitpro/devkitARM/bin/../lib/gcc/arm-none-eabi/12.2.0/../../../../arm-none-eabi/lib/libg.a(lib_a-locale.o)
 .text.__get_locale_env
                0x0000000000000000       0x94 /opt/devkitpro/devkitARM/bin/../lib/gcc/arm-none-eabi/12.2.0/../../../../arm-none-eabi/lib/libg.a(lib_a-locale.o)
 .text._setlocale_r
                0x0000000000000000      0x334 /opt/devkitpro/devkitARM/bin/../lib/gcc/arm-none-eabi/12.2.0/../../../../arm-none-eabi/lib/libg.a(lib_a-locale.o)
 .text.setlocale
                0x0000000000000000       0x20 /opt/devkitpro/devkitARM/bin/../lib/gcc/arm-none-eabi/12.2.0/../../../../arm-none-eabi/lib/libg.a(lib_a-locale.o)
 .bss.saved_categories.0
                0x0000000000000000       0xe0 /opt/devkitpro/devkitARM/bin/../lib/gcc/arm-none-eabi/12.2.0/../../../../arm-none-eabi/lib/libg.a(lib_a-locale.o)
 .bss.new_categories.1
                0x0000000000000000       0xe0 /opt/devkitpro/devkitARM/bin/../lib/gcc/arm-none-eabi/12.2.0/../../../../arm-none-eabi/lib/libg.a(lib_a-locale.o)
 .bss.global_locale_string
                0x0000000000000000       0xe7 /opt/devkitpro/devkitARM/bin/../lib/gcc/arm-none-eabi/12.2.0/../../../../arm-none-eabi/lib/libg.a(lib_a-locale.o)
 .rodata.__C_locale
                0x0000000000000000      0x16c /opt/devkitpro/devkitARM/bin/../lib/gcc/arm-none-eabi/12.2.0/../../../../arm-none-eabi/lib/libg.a(lib_a-locale.o)
 .data.__default_locale
                0x0000000000000000       0x20 /opt/devkitpro/devkitARM/bin/../lib/gcc/arm-none-eabi/12.2.0/../../../../arm-none-eabi/lib/libg.a(lib_a-locale.o)
 .rodata.categories
                0x0000000000000000       0x1c /opt/devkitpro/devkitARM/bin/../lib/gcc/arm-none-eabi/12.2.0/../../../../arm-none-eabi/lib/libg.a(lib_a-locale.o)
 .bss._PathLocale
                0x0000000000000000        0x4 /opt/devkitpro/devkitARM/bin/../lib/gcc/arm-none-eabi/12.2.0/../../../../arm-none-eabi/lib/libg.a(lib_a-locale.o)
 .text          0x0000000000000000        0x0 /opt/devkitpro/devkitARM/bin/../lib/gcc/arm-none-eabi/12.2.0/../../../../arm-none-eabi/lib/libg.a(lib_a-makebuf.o)
 .data          0x0000000000000000        0x0 /opt/devkitpro/devkitARM/bin/../lib/gcc/arm-none-eabi/12.2.0/../../../../arm-none-eabi/lib/libg.a(lib_a-makebuf.o)
 .bss           0x0000000000000000        0x0 /opt/devkitpro/devkitARM/bin/../lib/gcc/arm-none-eabi/12.2.0/../../../../arm-none-eabi/lib/libg.a(lib_a-makebuf.o)
 .text.__swhatbuf_r
                0x0000000000000000       0x80 /opt/devkitpro/devkitARM/bin/../lib/gcc/arm-none-eabi/12.2.0/../../../../arm-none-eabi/lib/libg.a(lib_a-makebuf.o)
 .text          0x0000000000000000        0x0 /opt/devkitpro/devkitARM/bin/../lib/gcc/arm-none-eabi/12.2.0/../../../../arm-none-eabi/lib/libg.a(lib_a-malloc.o)
 .data          0x0000000000000000        0x0 /opt/devkitpro/devkitARM/bin/../lib/gcc/arm-none-eabi/12.2.0/../../../../arm-none-eabi/lib/libg.a(lib_a-malloc.o)
 .bss           0x0000000000000000        0x0 /opt/devkitpro/devkitARM/bin/../lib/gcc/arm-none-eabi/12.2.0/../../../../arm-none-eabi/lib/libg.a(lib_a-malloc.o)
 .text          0x0000000000000000        0x0 /opt/devkitpro/devkitARM/bin/../lib/gcc/arm-none-eabi/12.2.0/../../../../arm-none-eabi/lib/libg.a(lib_a-mallocr.o)
 .data          0x0000000000000000        0x0 /opt/devkitpro/devkitARM/bin/../lib/gcc/arm-none-eabi/12.2.0/../../../../arm-none-eabi/lib/libg.a(lib_a-mallocr.o)
 .bss           0x0000000000000000        0x0 /opt/devkitpro/devkitARM/bin/../lib/gcc/arm-none-eabi/12.2.0/../../../../arm-none-eabi/lib/libg.a(lib_a-mallocr.o)
 .text          0x0000000000000000        0x0 /opt/devkitpro/devkitARM/bin/../lib/gcc/arm-none-eabi/12.2.0/../../../../arm-none-eabi/lib/libg.a(lib_a-mbrtowc.o)
 .data          0x0000000000000000        0x0 /opt/devkitpro/devkitARM/bin/../lib/gcc/arm-none-eabi/12.2.0/../../../../arm-none-eabi/lib/libg.a(lib_a-mbrtowc.o)
 .bss           0x0000000000000000        0x0 /opt/devkitpro/devkitARM/bin/../lib/gcc/arm-none-eabi/12.2.0/../../../../arm-none-eabi/lib/libg.a(lib_a-mbrtowc.o)
 .text          0x0000000000000000        0x0 /opt/devkitpro/devkitARM/bin/../lib/gcc/arm-none-eabi/12.2.0/../../../../arm-none-eabi/lib/libg.a(lib_a-mbsrtowcs.o)
 .data          0x0000000000000000        0x0 /opt/devkitpro/devkitARM/bin/../lib/gcc/arm-none-eabi/12.2.0/../../../../arm-none-eabi/lib/libg.a(lib_a-mbsrtowcs.o)
 .bss           0x0000000000000000        0x0 /opt/devkitpro/devkitARM/bin/../lib/gcc/arm-none-eabi/12.2.0/../../../../arm-none-eabi/lib/libg.a(lib_a-mbsrtowcs.o)
 .text._mbsrtowcs_r
                0x0000000000000000       0x2c /opt/devkitpro/devkitARM/bin/../lib/gcc/arm-none-eabi/12.2.0/../../../../arm-none-eabi/lib/libg.a(lib_a-mbsrtowcs.o)
 .text          0x0000000000000000        0x0 /opt/devkitpro/devkitARM/bin/../lib/gcc/arm-none-eabi/12.2.0/../../../../arm-none-eabi/lib/libg.a(lib_a-mbtowc_r.o)
 .data          0x0000000000000000        0x0 /opt/devkitpro/devkitARM/bin/../lib/gcc/arm-none-eabi/12.2.0/../../../../arm-none-eabi/lib/libg.a(lib_a-mbtowc_r.o)
 .bss           0x0000000000000000        0x0 /opt/devkitpro/devkitARM/bin/../lib/gcc/arm-none-eabi/12.2.0/../../../../arm-none-eabi/lib/libg.a(lib_a-mbtowc_r.o)
 .text._mbtowc_r
                0x0000000000000000       0x1c /opt/devkitpro/devkitARM/bin/../lib/gcc/arm-none-eabi/12.2.0/../../../../arm-none-eabi/lib/libg.a(lib_a-mbtowc_r.o)
 .text.__ascii_mbtowc
                0x0000000000000000       0x44 /opt/devkitpro/devkitARM/bin/../lib/gcc/arm-none-eabi/12.2.0/../../../../arm-none-eabi/lib/libg.a(lib_a-mbtowc_r.o)
 .text.__sjis_mbtowc
                0x0000000000000000       0xd4 /opt/devkitpro/devkitARM/bin/../lib/gcc/arm-none-eabi/12.2.0/../../../../arm-none-eabi/lib/libg.a(lib_a-mbtowc_r.o)
 .text.__eucjp_mbtowc
                0x0000000000000000      0x13c /opt/devkitpro/devkitARM/bin/../lib/gcc/arm-none-eabi/12.2.0/../../../../arm-none-eabi/lib/libg.a(lib_a-mbtowc_r.o)
 .text.__jis_mbtowc
                0x0000000000000000      0x260 /opt/devkitpro/devkitARM/bin/../lib/gcc/arm-none-eabi/12.2.0/../../../../arm-none-eabi/lib/libg.a(lib_a-mbtowc_r.o)
 .rodata.JIS_action_table
                0x0000000000000000       0x48 /opt/devkitpro/devkitARM/bin/../lib/gcc/arm-none-eabi/12.2.0/../../../../arm-none-eabi/lib/libg.a(lib_a-mbtowc_r.o)
 .rodata.JIS_state_table
                0x0000000000000000       0x48 /opt/devkitpro/devkitARM/bin/../lib/gcc/arm-none-eabi/12.2.0/../../../../arm-none-eabi/lib/libg.a(lib_a-mbtowc_r.o)
 .text          0x0000000000000000        0x0 /opt/devkitpro/devkitARM/bin/../lib/gcc/arm-none-eabi/12.2.0/../../../../arm-none-eabi/lib/libg.a(lib_a-memcmp.o)
 .data          0x0000000000000000        0x0 /opt/devkitpro/devkitARM/bin/../lib/gcc/arm-none-eabi/12.2.0/../../../../arm-none-eabi/lib/libg.a(lib_a-memcmp.o)
 .bss           0x0000000000000000        0x0 /opt/devkitpro/devkitARM/bin/../lib/gcc/arm-none-eabi/12.2.0/../../../../arm-none-eabi/lib/libg.a(lib_a-memcmp.o)
 .text          0x0000000000000000        0x0 /opt/devkitpro/devkitARM/bin/../lib/gcc/arm-none-eabi/12.2.0/../../../../arm-none-eabi/lib/libg.a(lib_a-memcpy-stub.o)
 .data          0x0000000000000000        0x0 /opt/devkitpro/devkitARM/bin/../lib/gcc/arm-none-eabi/12.2.0/../../../../arm-none-eabi/lib/libg.a(lib_a-memcpy-stub.o)
 .bss           0x0000000000000000        0x0 /opt/devkitpro/devkitARM/bin/../lib/gcc/arm-none-eabi/12.2.0/../../../../arm-none-eabi/lib/libg.a(lib_a-memcpy-stub.o)
 .text          0x0000000000000000        0x0 /opt/devkitpro/devkitARM/bin/../lib/gcc/arm-none-eabi/12.2.0/../../../../arm-none-eabi/lib/libg.a(lib_a-memmove.o)
 .data          0x0000000000000000        0x0 /opt/devkitpro/devkitARM/bin/../lib/gcc/arm-none-eabi/12.2.0/../../../../arm-none-eabi/lib/libg.a(lib_a-memmove.o)
 .bss           0x0000000000000000        0x0 /opt/devkitpro/devkitARM/bin/../lib/gcc/arm-none-eabi/12.2.0/../../../../arm-none-eabi/lib/libg.a(lib_a-memmove.o)
 .text          0x0000000000000000        0x0 /opt/devkitpro/devkitARM/bin/../lib/gcc/arm-none-eabi/12.2.0/../../../../arm-none-eabi/lib/libg.a(lib_a-memset.o)
 .data          0x0000000000000000        0x0 /opt/devkitpro/devkitARM/bin/../lib/gcc/arm-none-eabi/12.2.0/../../../../arm-none-eabi/lib/libg.a(lib_a-memset.o)
 .bss           0x0000000000000000        0x0 /opt/devkitpro/devkitARM/bin/../lib/gcc/arm-none-eabi/12.2.0/../../../../arm-none-eabi/lib/libg.a(lib_a-memset.o)
 .text          0x0000000000000000        0x0 /opt/devkitpro/devkitARM/bin/../lib/gcc/arm-none-eabi/12.2.0/../../../../arm-none-eabi/lib/libg.a(lib_a-mktime.o)
 .data          0x0000000000000000        0x0 /opt/devkitpro/devkitARM/bin/../lib/gcc/arm-none-eabi/12.2.0/../../../../arm-none-eabi/lib/libg.a(lib_a-mktime.o)
 .bss           0x0000000000000000        0x0 /opt/devkitpro/devkitARM/bin/../lib/gcc/arm-none-eabi/12.2.0/../../../../arm-none-eabi/lib/libg.a(lib_a-mktime.o)
 .text          0x0000000000000000        0x0 /opt/devkitpro/devkitARM/bin/../lib/gcc/arm-none-eabi/12.2.0/../../../../arm-none-eabi/lib/libg.a(lib_a-mlock.o)
 .data          0x0000000000000000        0x0 /opt/devkitpro/devkitARM/bin/../lib/gcc/arm-none-eabi/12.2.0/../../../../arm-none-eabi/lib/libg.a(lib_a-mlock.o)
 .bss           0x0000000000000000        0x0 /opt/devkitpro/devkitARM/bin/../lib/gcc/arm-none-eabi/12.2.0/../../../../arm-none-eabi/lib/libg.a(lib_a-mlock.o)
 .text          0x0000000000000000        0x0 /opt/devkitpro/devkitARM/bin/../lib/gcc/arm-none-eabi/12.2.0/../../../../arm-none-eabi/lib/libg.a(lib_a-month_lengths.o)
 .data          0x0000000000000000        0x0 /opt/devkitpro/devkitARM/bin/../lib/gcc/arm-none-eabi/12.2.0/../../../../arm-none-eabi/lib/libg.a(lib_a-month_lengths.o)
 .bss           0x0000000000000000        0x0 /opt/devkitpro/devkitARM/bin/../lib/gcc/arm-none-eabi/12.2.0/../../../../arm-none-eabi/lib/libg.a(lib_a-month_lengths.o)
 .text          0x0000000000000000        0x0 /opt/devkitpro/devkitARM/bin/../lib/gcc/arm-none-eabi/12.2.0/../../../../arm-none-eabi/lib/libg.a(lib_a-printf.o)
 .data          0x0000000000000000        0x0 /opt/devkitpro/devkitARM/bin/../lib/gcc/arm-none-eabi/12.2.0/../../../../arm-none-eabi/lib/libg.a(lib_a-printf.o)
 .bss           0x0000000000000000        0x0 /opt/devkitpro/devkitARM/bin/../lib/gcc/arm-none-eabi/12.2.0/../../../../arm-none-eabi/lib/libg.a(lib_a-printf.o)
 .text._printf_r
                0x0000000000000000       0x30 /opt/devkitpro/devkitARM/bin/../lib/gcc/arm-none-eabi/12.2.0/../../../../arm-none-eabi/lib/libg.a(lib_a-printf.o)
 .text          0x0000000000000000        0x0 /opt/devkitpro/devkitARM/bin/../lib/gcc/arm-none-eabi/12.2.0/../../../../arm-none-eabi/lib/libg.a(lib_a-realloc.o)
 .data          0x0000000000000000        0x0 /opt/devkitpro/devkitARM/bin/../lib/gcc/arm-none-eabi/12.2.0/../../../../arm-none-eabi/lib/libg.a(lib_a-realloc.o)
 .bss           0x0000000000000000        0x0 /opt/devkitpro/devkitARM/bin/../lib/gcc/arm-none-eabi/12.2.0/../../../../arm-none-eabi/lib/libg.a(lib_a-realloc.o)
 .text          0x0000000000000000        0x0 /opt/devkitpro/devkitARM/bin/../lib/gcc/arm-none-eabi/12.2.0/../../../../arm-none-eabi/lib/libg.a(lib_a-reallocr.o)
 .data          0x0000000000000000        0x0 /opt/devkitpro/devkitARM/bin/../lib/gcc/arm-none-eabi/12.2.0/../../../../arm-none-eabi/lib/libg.a(lib_a-reallocr.o)
 .bss           0x0000000000000000        0x0 /opt/devkitpro/devkitARM/bin/../lib/gcc/arm-none-eabi/12.2.0/../../../../arm-none-eabi/lib/libg.a(lib_a-reallocr.o)
 .text          0x0000000000000000        0x0 /opt/devkitpro/devkitARM/bin/../lib/gcc/arm-none-eabi/12.2.0/../../../../arm-none-eabi/lib/libg.a(lib_a-refill.o)
 .data          0x0000000000000000        0x0 /opt/devkitpro/devkitARM/bin/../lib/gcc/arm-none-eabi/12.2.0/../../../../arm-none-eabi/lib/libg.a(lib_a-refill.o)
 .bss           0x0000000000000000        0x0 /opt/devkitpro/devkitARM/bin/../lib/gcc/arm-none-eabi/12.2.0/../../../../arm-none-eabi/lib/libg.a(lib_a-refill.o)
 .text          0x0000000000000000        0x0 /opt/devkitpro/devkitARM/bin/../lib/gcc/arm-none-eabi/12.2.0/../../../../arm-none-eabi/lib/libg.a(lib_a-sprintf.o)
 .data          0x0000000000000000        0x0 /opt/devkitpro/devkitARM/bin/../lib/gcc/arm-none-eabi/12.2.0/../../../../arm-none-eabi/lib/libg.a(lib_a-sprintf.o)
 .bss           0x0000000000000000        0x0 /opt/devkitpro/devkitARM/bin/../lib/gcc/arm-none-eabi/12.2.0/../../../../arm-none-eabi/lib/libg.a(lib_a-sprintf.o)
 .text._sprintf_r
                0x0000000000000000       0x60 /opt/devkitpro/devkitARM/bin/../lib/gcc/arm-none-eabi/12.2.0/../../../../arm-none-eabi/lib/libg.a(lib_a-sprintf.o)
 .text          0x0000000000000000        0x0 /opt/devkitpro/devkitARM/bin/../lib/gcc/arm-none-eabi/12.2.0/../../../../arm-none-eabi/lib/libg.a(lib_a-stdio.o)
 .data          0x0000000000000000        0x0 /opt/devkitpro/devkitARM/bin/../lib/gcc/arm-none-eabi/12.2.0/../../../../arm-none-eabi/lib/libg.a(lib_a-stdio.o)
 .bss           0x0000000000000000        0x0 /opt/devkitpro/devkitARM/bin/../lib/gcc/arm-none-eabi/12.2.0/../../../../arm-none-eabi/lib/libg.a(lib_a-stdio.o)
 .text          0x0000000000000000        0x0 /opt/devkitpro/devkitARM/bin/../lib/gcc/arm-none-eabi/12.2.0/../../../../arm-none-eabi/lib/libg.a(lib_a-stpcpy.o)
 .data          0x0000000000000000        0x0 /opt/devkitpro/devkitARM/bin/../lib/gcc/arm-none-eabi/12.2.0/../../../../arm-none-eabi/lib/libg.a(lib_a-stpcpy.o)
 .bss           0x0000000000000000        0x0 /opt/devkitpro/devkitARM/bin/../lib/gcc/arm-none-eabi/12.2.0/../../../../arm-none-eabi/lib/libg.a(lib_a-stpcpy.o)
 .text          0x0000000000000000        0x0 /opt/devkitpro/devkitARM/bin/../lib/gcc/arm-none-eabi/12.2.0/../../../../arm-none-eabi/lib/libg.a(lib_a-strcasecmp.o)
 .data          0x0000000000000000        0x0 /opt/devkitpro/devkitARM/bin/../lib/gcc/arm-none-eabi/12.2.0/../../../../arm-none-eabi/lib/libg.a(lib_a-strcasecmp.o)
 .bss           0x0000000000000000        0x0 /opt/devkitpro/devkitARM/bin/../lib/gcc/arm-none-eabi/12.2.0/../../../../arm-none-eabi/lib/libg.a(lib_a-strcasecmp.o)
 .text          0x0000000000000000        0x0 /opt/devkitpro/devkitARM/bin/../lib/gcc/arm-none-eabi/12.2.0/../../../../arm-none-eabi/lib/libg.a(lib_a-strcat.o)
 .data          0x0000000000000000        0x0 /opt/devkitpro/devkitARM/bin/../lib/gcc/arm-none-eabi/12.2.0/../../../../arm-none-eabi/lib/libg.a(lib_a-strcat.o)
 .bss           0x0000000000000000        0x0 /opt/devkitpro/devkitARM/bin/../lib/gcc/arm-none-eabi/12.2.0/../../../../arm-none-eabi/lib/libg.a(lib_a-strcat.o)
 .text.strcat   0x0000000000000000       0x74 /opt/devkitpro/devkitARM/bin/../lib/gcc/arm-none-eabi/12.2.0/../../../../arm-none-eabi/lib/libg.a(lib_a-strcat.o)
 .comment       0x0000000000000000       0x24 /opt/devkitpro/devkitARM/bin/../lib/gcc/arm-none-eabi/12.2.0/../../../../arm-none-eabi/lib/libg.a(lib_a-strcat.o)
 .ARM.attributes
                0x0000000000000000       0x2a /opt/devkitpro/devkitARM/bin/../lib/gcc/arm-none-eabi/12.2.0/../../../../arm-none-eabi/lib/libg.a(lib_a-strcat.o)
 .text          0x0000000000000000        0x0 /opt/devkitpro/devkitARM/bin/../lib/gcc/arm-none-eabi/12.2.0/../../../../arm-none-eabi/lib/libg.a(lib_a-strchr.o)
 .data          0x0000000000000000        0x0 /opt/devkitpro/devkitARM/bin/../lib/gcc/arm-none-eabi/12.2.0/../../../../arm-none-eabi/lib/libg.a(lib_a-strchr.o)
 .bss           0x0000000000000000        0x0 /opt/devkitpro/devkitARM/bin/../lib/gcc/arm-none-eabi/12.2.0/../../../../arm-none-eabi/lib/libg.a(lib_a-strchr.o)
 .data          0x0000000000000000        0x0 /opt/devkitpro/devkitARM/bin/../lib/gcc/arm-none-eabi/12.2.0/../../../../arm-none-eabi/lib/libg.a(lib_a-strcmp.o)
 .bss           0x0000000000000000        0x0 /opt/devkitpro/devkitARM/bin/../lib/gcc/arm-none-eabi/12.2.0/../../../../arm-none-eabi/lib/libg.a(lib_a-strcmp.o)
 .text          0x0000000000000000        0x0 /opt/devkitpro/devkitARM/bin/../lib/gcc/arm-none-eabi/12.2.0/../../../../arm-none-eabi/lib/libg.a(lib_a-strcpy.o)
 .data          0x0000000000000000        0x0 /opt/devkitpro/devkitARM/bin/../lib/gcc/arm-none-eabi/12.2.0/../../../../arm-none-eabi/lib/libg.a(lib_a-strcpy.o)
 .bss           0x0000000000000000        0x0 /opt/devkitpro/devkitARM/bin/../lib/gcc/arm-none-eabi/12.2.0/../../../../arm-none-eabi/lib/libg.a(lib_a-strcpy.o)
 .text          0x0000000000000000        0x0 /opt/devkitpro/devkitARM/bin/../lib/gcc/arm-none-eabi/12.2.0/../../../../arm-none-eabi/lib/libg.a(lib_a-strdup.o)
 .data          0x0000000000000000        0x0 /opt/devkitpro/devkitARM/bin/../lib/gcc/arm-none-eabi/12.2.0/../../../../arm-none-eabi/lib/libg.a(lib_a-strdup.o)
 .bss           0x0000000000000000        0x0 /opt/devkitpro/devkitARM/bin/../lib/gcc/arm-none-eabi/12.2.0/../../../../arm-none-eabi/lib/libg.a(lib_a-strdup.o)
 .text          0x0000000000000000        0x0 /opt/devkitpro/devkitARM/bin/../lib/gcc/arm-none-eabi/12.2.0/../../../../arm-none-eabi/lib/libg.a(lib_a-strdup_r.o)
 .data          0x0000000000000000        0x0 /opt/devkitpro/devkitARM/bin/../lib/gcc/arm-none-eabi/12.2.0/../../../../arm-none-eabi/lib/libg.a(lib_a-strdup_r.o)
 .bss           0x0000000000000000        0x0 /opt/devkitpro/devkitARM/bin/../lib/gcc/arm-none-eabi/12.2.0/../../../../arm-none-eabi/lib/libg.a(lib_a-strdup_r.o)
 .text          0x0000000000000000        0x0 /opt/devkitpro/devkitARM/bin/../lib/gcc/arm-none-eabi/12.2.0/../../../../arm-none-eabi/lib/libg.a(lib_a-strlcpy.o)
 .data          0x0000000000000000        0x0 /opt/devkitpro/devkitARM/bin/../lib/gcc/arm-none-eabi/12.2.0/../../../../arm-none-eabi/lib/libg.a(lib_a-strlcpy.o)
 .bss           0x0000000000000000        0x0 /opt/devkitpro/devkitARM/bin/../lib/gcc/arm-none-eabi/12.2.0/../../../../arm-none-eabi/lib/libg.a(lib_a-strlcpy.o)
 .text.strlcpy  0x0000000000000000       0x48 /opt/devkitpro/devkitARM/bin/../lib/gcc/arm-none-eabi/12.2.0/../../../../arm-none-eabi/lib/libg.a(lib_a-strlcpy.o)
 .comment       0x0000000000000000       0x24 /opt/devkitpro/devkitARM/bin/../lib/gcc/arm-none-eabi/12.2.0/../../../../arm-none-eabi/lib/libg.a(lib_a-strlcpy.o)
 .ARM.attributes
                0x0000000000000000       0x2a /opt/devkitpro/devkitARM/bin/../lib/gcc/arm-none-eabi/12.2.0/../../../../arm-none-eabi/lib/libg.a(lib_a-strlcpy.o)
 .text          0x0000000000000000        0x0 /opt/devkitpro/devkitARM/bin/../lib/gcc/arm-none-eabi/12.2.0/../../../../arm-none-eabi/lib/libg.a(lib_a-strlen-stub.o)
 .data          0x0000000000000000        0x0 /opt/devkitpro/devkitARM/bin/../lib/gcc/arm-none-eabi/12.2.0/../../../../arm-none-eabi/lib/libg.a(lib_a-strlen-stub.o)
 .bss           0x0000000000000000        0x0 /opt/devkitpro/devkitARM/bin/../lib/gcc/arm-none-eabi/12.2.0/../../../../arm-none-eabi/lib/libg.a(lib_a-strlen-stub.o)
 .text          0x0000000000000000        0x0 /opt/devkitpro/devkitARM/bin/../lib/gcc/arm-none-eabi/12.2.0/../../../../arm-none-eabi/lib/libg.a(lib_a-strncasecmp.o)
 .data          0x0000000000000000        0x0 /opt/devkitpro/devkitARM/bin/../lib/gcc/arm-none-eabi/12.2.0/../../../../arm-none-eabi/lib/libg.a(lib_a-strncasecmp.o)
 .bss           0x0000000000000000        0x0 /opt/devkitpro/devkitARM/bin/../lib/gcc/arm-none-eabi/12.2.0/../../../../arm-none-eabi/lib/libg.a(lib_a-strncasecmp.o)
 .text          0x0000000000000000        0x0 /opt/devkitpro/devkitARM/bin/../lib/gcc/arm-none-eabi/12.2.0/../../../../arm-none-eabi/lib/libg.a(lib_a-strncmp.o)
 .data          0x0000000000000000        0x0 /opt/devkitpro/devkitARM/bin/../lib/gcc/arm-none-eabi/12.2.0/../../../../arm-none-eabi/lib/libg.a(lib_a-strncmp.o)
 .bss           0x0000000000000000        0x0 /opt/devkitpro/devkitARM/bin/../lib/gcc/arm-none-eabi/12.2.0/../../../../arm-none-eabi/lib/libg.a(lib_a-strncmp.o)
 .text          0x0000000000000000        0x0 /opt/devkitpro/devkitARM/bin/../lib/gcc/arm-none-eabi/12.2.0/../../../../arm-none-eabi/lib/libg.a(lib_a-strncpy.o)
 .data          0x0000000000000000        0x0 /opt/devkitpro/devkitARM/bin/../lib/gcc/arm-none-eabi/12.2.0/../../../../arm-none-eabi/lib/libg.a(lib_a-strncpy.o)
 .bss           0x0000000000000000        0x0 /opt/devkitpro/devkitARM/bin/../lib/gcc/arm-none-eabi/12.2.0/../../../../arm-none-eabi/lib/libg.a(lib_a-strncpy.o)
 .text          0x0000000000000000        0x0 /opt/devkitpro/devkitARM/bin/../lib/gcc/arm-none-eabi/12.2.0/../../../../arm-none-eabi/lib/libg.a(lib_a-strnlen.o)
 .data          0x0000000000000000        0x0 /opt/devkitpro/devkitARM/bin/../lib/gcc/arm-none-eabi/12.2.0/../../../../arm-none-eabi/lib/libg.a(lib_a-strnlen.o)
 .bss           0x0000000000000000        0x0 /opt/devkitpro/devkitARM/bin/../lib/gcc/arm-none-eabi/12.2.0/../../../../arm-none-eabi/lib/libg.a(lib_a-strnlen.o)
 .text          0x0000000000000000        0x0 /opt/devkitpro/devkitARM/bin/../lib/gcc/arm-none-eabi/12.2.0/../../../../arm-none-eabi/lib/libg.a(lib_a-strpbrk.o)
 .data          0x0000000000000000        0x0 /opt/devkitpro/devkitARM/bin/../lib/gcc/arm-none-eabi/12.2.0/../../../../arm-none-eabi/lib/libg.a(lib_a-strpbrk.o)
 .bss           0x0000000000000000        0x0 /opt/devkitpro/devkitARM/bin/../lib/gcc/arm-none-eabi/12.2.0/../../../../arm-none-eabi/lib/libg.a(lib_a-strpbrk.o)
 .text          0x0000000000000000        0x0 /opt/devkitpro/devkitARM/bin/../lib/gcc/arm-none-eabi/12.2.0/../../../../arm-none-eabi/lib/libg.a(lib_a-strrchr.o)
 .data          0x0000000000000000        0x0 /opt/devkitpro/devkitARM/bin/../lib/gcc/arm-none-eabi/12.2.0/../../../../arm-none-eabi/lib/libg.a(lib_a-strrchr.o)
 .bss           0x0000000000000000        0x0 /opt/devkitpro/devkitARM/bin/../lib/gcc/arm-none-eabi/12.2.0/../../../../arm-none-eabi/lib/libg.a(lib_a-strrchr.o)
 .text          0x0000000000000000        0x0 /opt/devkitpro/devkitARM/bin/../lib/gcc/arm-none-eabi/12.2.0/../../../../arm-none-eabi/lib/libg.a(lib_a-strtok.o)
 .data          0x0000000000000000        0x0 /opt/devkitpro/devkitARM/bin/../lib/gcc/arm-none-eabi/12.2.0/../../../../arm-none-eabi/lib/libg.a(lib_a-strtok.o)
 .bss           0x0000000000000000        0x0 /opt/devkitpro/devkitARM/bin/../lib/gcc/arm-none-eabi/12.2.0/../../../../arm-none-eabi/lib/libg.a(lib_a-strtok.o)
 .text          0x0000000000000000        0x0 /opt/devkitpro/devkitARM/bin/../lib/gcc/arm-none-eabi/12.2.0/../../../../arm-none-eabi/lib/libg.a(lib_a-strtok_r.o)
 .data          0x0000000000000000        0x0 /opt/devkitpro/devkitARM/bin/../lib/gcc/arm-none-eabi/12.2.0/../../../../arm-none-eabi/lib/libg.a(lib_a-strtok_r.o)
 .bss           0x0000000000000000        0x0 /opt/devkitpro/devkitARM/bin/../lib/gcc/arm-none-eabi/12.2.0/../../../../arm-none-eabi/lib/libg.a(lib_a-strtok_r.o)
 .text.strtok_r
                0x0000000000000000        0x8 /opt/devkitpro/devkitARM/bin/../lib/gcc/arm-none-eabi/12.2.0/../../../../arm-none-eabi/lib/libg.a(lib_a-strtok_r.o)
 .text          0x0000000000000000        0x0 /opt/devkitpro/devkitARM/bin/../lib/gcc/arm-none-eabi/12.2.0/../../../../arm-none-eabi/lib/libg.a(lib_a-strtol.o)
 .data          0x0000000000000000        0x0 /opt/devkitpro/devkitARM/bin/../lib/gcc/arm-none-eabi/12.2.0/../../../../arm-none-eabi/lib/libg.a(lib_a-strtol.o)
 .bss           0x0000000000000000        0x0 /opt/devkitpro/devkitARM/bin/../lib/gcc/arm-none-eabi/12.2.0/../../../../arm-none-eabi/lib/libg.a(lib_a-strtol.o)
 .text.strtol_l
                0x0000000000000000       0x5c /opt/devkitpro/devkitARM/bin/../lib/gcc/arm-none-eabi/12.2.0/../../../../arm-none-eabi/lib/libg.a(lib_a-strtol.o)
 .text          0x0000000000000000        0x0 /opt/devkitpro/devkitARM/bin/../lib/gcc/arm-none-eabi/12.2.0/../../../../arm-none-eabi/lib/libg.a(lib_a-svfprintf.o)
 .data          0x0000000000000000        0x0 /opt/devkitpro/devkitARM/bin/../lib/gcc/arm-none-eabi/12.2.0/../../../../arm-none-eabi/lib/libg.a(lib_a-svfprintf.o)
 .bss           0x0000000000000000        0x0 /opt/devkitpro/devkitARM/bin/../lib/gcc/arm-none-eabi/12.2.0/../../../../arm-none-eabi/lib/libg.a(lib_a-svfprintf.o)
 .text          0x0000000000000000        0x0 /opt/devkitpro/devkitARM/bin/../lib/gcc/arm-none-eabi/12.2.0/../../../../arm-none-eabi/lib/libg.a(lib_a-sysclose.o)
 .data          0x0000000000000000        0x0 /opt/devkitpro/devkitARM/bin/../lib/gcc/arm-none-eabi/12.2.0/../../../../arm-none-eabi/lib/libg.a(lib_a-sysclose.o)
 .bss           0x0000000000000000        0x0 /opt/devkitpro/devkitARM/bin/../lib/gcc/arm-none-eabi/12.2.0/../../../../arm-none-eabi/lib/libg.a(lib_a-sysclose.o)
 .text.close    0x0000000000000000       0x1c /opt/devkitpro/devkitARM/bin/../lib/gcc/arm-none-eabi/12.2.0/../../../../arm-none-eabi/lib/libg.a(lib_a-sysclose.o)
 .comment       0x0000000000000000       0x24 /opt/devkitpro/devkitARM/bin/../lib/gcc/arm-none-eabi/12.2.0/../../../../arm-none-eabi/lib/libg.a(lib_a-sysclose.o)
 .ARM.attributes
                0x0000000000000000       0x2a /opt/devkitpro/devkitARM/bin/../lib/gcc/arm-none-eabi/12.2.0/../../../../arm-none-eabi/lib/libg.a(lib_a-sysclose.o)
 .text          0x0000000000000000        0x0 /opt/devkitpro/devkitARM/bin/../lib/gcc/arm-none-eabi/12.2.0/../../../../arm-none-eabi/lib/libg.a(lib_a-syslseek.o)
 .data          0x0000000000000000        0x0 /opt/devkitpro/devkitARM/bin/../lib/gcc/arm-none-eabi/12.2.0/../../../../arm-none-eabi/lib/libg.a(lib_a-syslseek.o)
 .bss           0x0000000000000000        0x0 /opt/devkitpro/devkitARM/bin/../lib/gcc/arm-none-eabi/12.2.0/../../../../arm-none-eabi/lib/libg.a(lib_a-syslseek.o)
 .text          0x0000000000000000        0x0 /opt/devkitpro/devkitARM/bin/../lib/gcc/arm-none-eabi/12.2.0/../../../../arm-none-eabi/lib/libg.a(lib_a-sysopen.o)
 .data          0x0000000000000000        0x0 /opt/devkitpro/devkitARM/bin/../lib/gcc/arm-none-eabi/12.2.0/../../../../arm-none-eabi/lib/libg.a(lib_a-sysopen.o)
 .bss           0x0000000000000000        0x0 /opt/devkitpro/devkitARM/bin/../lib/gcc/arm-none-eabi/12.2.0/../../../../arm-none-eabi/lib/libg.a(lib_a-sysopen.o)
 .text          0x0000000000000000        0x0 /opt/devkitpro/devkitARM/bin/../lib/gcc/arm-none-eabi/12.2.0/../../../../arm-none-eabi/lib/libg.a(lib_a-sysread.o)
 .data          0x0000000000000000        0x0 /opt/devkitpro/devkitARM/bin/../lib/gcc/arm-none-eabi/12.2.0/../../../../arm-none-eabi/lib/libg.a(lib_a-sysread.o)
 .bss           0x0000000000000000        0x0 /opt/devkitpro/devkitARM/bin/../lib/gcc/arm-none-eabi/12.2.0/../../../../arm-none-eabi/lib/libg.a(lib_a-sysread.o)
 .text          0x0000000000000000        0x0 /opt/devkitpro/devkitARM/bin/../lib/gcc/arm-none-eabi/12.2.0/../../../../arm-none-eabi/lib/libg.a(lib_a-time.o)
 .data          0x0000000000000000        0x0 /opt/devkitpro/devkitARM/bin/../lib/gcc/arm-none-eabi/12.2.0/../../../../arm-none-eabi/lib/libg.a(lib_a-time.o)
 .bss           0x0000000000000000        0x0 /opt/devkitpro/devkitARM/bin/../lib/gcc/arm-none-eabi/12.2.0/../../../../arm-none-eabi/lib/libg.a(lib_a-time.o)
 .text          0x0000000000000000        0x0 /opt/devkitpro/devkitARM/bin/../lib/gcc/arm-none-eabi/12.2.0/../../../../arm-none-eabi/lib/libg.a(lib_a-towlower.o)
 .data          0x0000000000000000        0x0 /opt/devkitpro/devkitARM/bin/../lib/gcc/arm-none-eabi/12.2.0/../../../../arm-none-eabi/lib/libg.a(lib_a-towlower.o)
 .bss           0x0000000000000000        0x0 /opt/devkitpro/devkitARM/bin/../lib/gcc/arm-none-eabi/12.2.0/../../../../arm-none-eabi/lib/libg.a(lib_a-towlower.o)
 .text          0x0000000000000000        0x0 /opt/devkitpro/devkitARM/bin/../lib/gcc/arm-none-eabi/12.2.0/../../../../arm-none-eabi/lib/libg.a(lib_a-towupper.o)
 .data          0x0000000000000000        0x0 /opt/devkitpro/devkitARM/bin/../lib/gcc/arm-none-eabi/12.2.0/../../../../arm-none-eabi/lib/libg.a(lib_a-towupper.o)
 .bss           0x0000000000000000        0x0 /opt/devkitpro/devkitARM/bin/../lib/gcc/arm-none-eabi/12.2.0/../../../../arm-none-eabi/lib/libg.a(lib_a-towupper.o)
 .text          0x0000000000000000        0x0 /opt/devkitpro/devkitARM/bin/../lib/gcc/arm-none-eabi/12.2.0/../../../../arm-none-eabi/lib/libg.a(lib_a-tzcalc_limits.o)
 .data          0x0000000000000000        0x0 /opt/devkitpro/devkitARM/bin/../lib/gcc/arm-none-eabi/12.2.0/../../../../arm-none-eabi/lib/libg.a(lib_a-tzcalc_limits.o)
 .bss           0x0000000000000000        0x0 /opt/devkitpro/devkitARM/bin/../lib/gcc/arm-none-eabi/12.2.0/../../../../arm-none-eabi/lib/libg.a(lib_a-tzcalc_limits.o)
 .text          0x0000000000000000        0x0 /opt/devkitpro/devkitARM/bin/../lib/gcc/arm-none-eabi/12.2.0/../../../../arm-none-eabi/lib/libg.a(lib_a-tzlock.o)
 .data          0x0000000000000000        0x0 /opt/devkitpro/devkitARM/bin/../lib/gcc/arm-none-eabi/12.2.0/../../../../arm-none-eabi/lib/libg.a(lib_a-tzlock.o)
 .bss           0x0000000000000000        0x0 /opt/devkitpro/devkitARM/bin/../lib/gcc/arm-none-eabi/12.2.0/../../../../arm-none-eabi/lib/libg.a(lib_a-tzlock.o)
 .text          0x0000000000000000        0x0 /opt/devkitpro/devkitARM/bin/../lib/gcc/arm-none-eabi/12.2.0/../../../../arm-none-eabi/lib/libg.a(lib_a-tzset.o)
 .data          0x0000000000000000        0x0 /opt/devkitpro/devkitARM/bin/../lib/gcc/arm-none-eabi/12.2.0/../../../../arm-none-eabi/lib/libg.a(lib_a-tzset.o)
 .bss           0x0000000000000000        0x0 /opt/devkitpro/devkitARM/bin/../lib/gcc/arm-none-eabi/12.2.0/../../../../arm-none-eabi/lib/libg.a(lib_a-tzset.o)
 .text.tzset    0x0000000000000000       0x1c /opt/devkitpro/devkitARM/bin/../lib/gcc/arm-none-eabi/12.2.0/../../../../arm-none-eabi/lib/libg.a(lib_a-tzset.o)
 .text          0x0000000000000000        0x0 /opt/devkitpro/devkitARM/bin/../lib/gcc/arm-none-eabi/12.2.0/../../../../arm-none-eabi/lib/libg.a(lib_a-tzset_r.o)
 .data          0x0000000000000000        0x0 /opt/devkitpro/devkitARM/bin/../lib/gcc/arm-none-eabi/12.2.0/../../../../arm-none-eabi/lib/libg.a(lib_a-tzset_r.o)
 .bss           0x0000000000000000        0x0 /opt/devkitpro/devkitARM/bin/../lib/gcc/arm-none-eabi/12.2.0/../../../../arm-none-eabi/lib/libg.a(lib_a-tzset_r.o)
 .text._tzset_r
                0x0000000000000000       0x20 /opt/devkitpro/devkitARM/bin/../lib/gcc/arm-none-eabi/12.2.0/../../../../arm-none-eabi/lib/libg.a(lib_a-tzset_r.o)
 .text          0x0000000000000000        0x0 /opt/devkitpro/devkitARM/bin/../lib/gcc/arm-none-eabi/12.2.0/../../../../arm-none-eabi/lib/libg.a(lib_a-tzvars.o)
 .data          0x0000000000000000        0x0 /opt/devkitpro/devkitARM/bin/../lib/gcc/arm-none-eabi/12.2.0/../../../../arm-none-eabi/lib/libg.a(lib_a-tzvars.o)
 .bss           0x0000000000000000        0x0 /opt/devkitpro/devkitARM/bin/../lib/gcc/arm-none-eabi/12.2.0/../../../../arm-none-eabi/lib/libg.a(lib_a-tzvars.o)
 .text          0x0000000000000000        0x0 /opt/devkitpro/devkitARM/bin/../lib/gcc/arm-none-eabi/12.2.0/../../../../arm-none-eabi/lib/libg.a(lib_a-vfiprintf.o)
 .data          0x0000000000000000        0x0 /opt/devkitpro/devkitARM/bin/../lib/gcc/arm-none-eabi/12.2.0/../../../../arm-none-eabi/lib/libg.a(lib_a-vfiprintf.o)
 .bss           0x0000000000000000        0x0 /opt/devkitpro/devkitARM/bin/../lib/gcc/arm-none-eabi/12.2.0/../../../../arm-none-eabi/lib/libg.a(lib_a-vfiprintf.o)
 .text.vfiprintf
                0x0000000000000000       0x28 /opt/devkitpro/devkitARM/bin/../lib/gcc/arm-none-eabi/12.2.0/../../../../arm-none-eabi/lib/libg.a(lib_a-vfiprintf.o)
 .text          0x0000000000000000        0x0 /opt/devkitpro/devkitARM/bin/../lib/gcc/arm-none-eabi/12.2.0/../../../../arm-none-eabi/lib/libg.a(lib_a-vfprintf.o)
 .data          0x0000000000000000        0x0 /opt/devkitpro/devkitARM/bin/../lib/gcc/arm-none-eabi/12.2.0/../../../../arm-none-eabi/lib/libg.a(lib_a-vfprintf.o)
 .bss           0x0000000000000000        0x0 /opt/devkitpro/devkitARM/bin/../lib/gcc/arm-none-eabi/12.2.0/../../../../arm-none-eabi/lib/libg.a(lib_a-vfprintf.o)
 .text.vfprintf
                0x0000000000000000       0x28 /opt/devkitpro/devkitARM/bin/../lib/gcc/arm-none-eabi/12.2.0/../../../../arm-none-eabi/lib/libg.a(lib_a-vfprintf.o)
 .text          0x0000000000000000        0x0 /opt/devkitpro/devkitARM/bin/../lib/gcc/arm-none-eabi/12.2.0/../../../../arm-none-eabi/lib/libg.a(lib_a-wcrtomb.o)
 .data          0x0000000000000000        0x0 /opt/devkitpro/devkitARM/bin/../lib/gcc/arm-none-eabi/12.2.0/../../../../arm-none-eabi/lib/libg.a(lib_a-wcrtomb.o)
 .bss           0x0000000000000000        0x0 /opt/devkitpro/devkitARM/bin/../lib/gcc/arm-none-eabi/12.2.0/../../../../arm-none-eabi/lib/libg.a(lib_a-wcrtomb.o)
 .text          0x0000000000000000        0x0 /opt/devkitpro/devkitARM/bin/../lib/gcc/arm-none-eabi/12.2.0/../../../../arm-none-eabi/lib/libg.a(lib_a-wcsrtombs.o)
 .data          0x0000000000000000        0x0 /opt/devkitpro/devkitARM/bin/../lib/gcc/arm-none-eabi/12.2.0/../../../../arm-none-eabi/lib/libg.a(lib_a-wcsrtombs.o)
 .bss           0x0000000000000000        0x0 /opt/devkitpro/devkitARM/bin/../lib/gcc/arm-none-eabi/12.2.0/../../../../arm-none-eabi/lib/libg.a(lib_a-wcsrtombs.o)
 .text.wcsrtombs
                0x0000000000000000       0x40 /opt/devkitpro/devkitARM/bin/../lib/gcc/arm-none-eabi/12.2.0/../../../../arm-none-eabi/lib/libg.a(lib_a-wcsrtombs.o)
 .text          0x0000000000000000        0x0 /opt/devkitpro/devkitARM/bin/../lib/gcc/arm-none-eabi/12.2.0/../../../../arm-none-eabi/lib/libg.a(lib_a-wctob.o)
 .data          0x0000000000000000        0x0 /opt/devkitpro/devkitARM/bin/../lib/gcc/arm-none-eabi/12.2.0/../../../../arm-none-eabi/lib/libg.a(lib_a-wctob.o)
 .bss           0x0000000000000000        0x0 /opt/devkitpro/devkitARM/bin/../lib/gcc/arm-none-eabi/12.2.0/../../../../arm-none-eabi/lib/libg.a(lib_a-wctob.o)
 .text          0x0000000000000000        0x0 /opt/devkitpro/devkitARM/bin/../lib/gcc/arm-none-eabi/12.2.0/../../../../arm-none-eabi/lib/libg.a(lib_a-wctomb_r.o)
 .data          0x0000000000000000        0x0 /opt/devkitpro/devkitARM/bin/../lib/gcc/arm-none-eabi/12.2.0/../../../../arm-none-eabi/lib/libg.a(lib_a-wctomb_r.o)
 .bss           0x0000000000000000        0x0 /opt/devkitpro/devkitARM/bin/../lib/gcc/arm-none-eabi/12.2.0/../../../../arm-none-eabi/lib/libg.a(lib_a-wctomb_r.o)
 .text._wctomb_r
                0x0000000000000000       0x1c /opt/devkitpro/devkitARM/bin/../lib/gcc/arm-none-eabi/12.2.0/../../../../arm-none-eabi/lib/libg.a(lib_a-wctomb_r.o)
 .text.__ascii_wctomb
                0x0000000000000000       0x30 /opt/devkitpro/devkitARM/bin/../lib/gcc/arm-none-eabi/12.2.0/../../../../arm-none-eabi/lib/libg.a(lib_a-wctomb_r.o)
 .text.__sjis_wctomb
                0x0000000000000000       0x90 /opt/devkitpro/devkitARM/bin/../lib/gcc/arm-none-eabi/12.2.0/../../../../arm-none-eabi/lib/libg.a(lib_a-wctomb_r.o)
 .text.__eucjp_wctomb
                0x0000000000000000       0xb8 /opt/devkitpro/devkitARM/bin/../lib/gcc/arm-none-eabi/12.2.0/../../../../arm-none-eabi/lib/libg.a(lib_a-wctomb_r.o)
 .text.__jis_wctomb
                0x0000000000000000       0xd8 /opt/devkitpro/devkitARM/bin/../lib/gcc/arm-none-eabi/12.2.0/../../../../arm-none-eabi/lib/libg.a(lib_a-wctomb_r.o)
 .text          0x0000000000000000        0x0 /opt/devkitpro/devkitARM/bin/../lib/gcc/arm-none-eabi/12.2.0/../../../../arm-none-eabi/lib/libg.a(lib_a-wsetup.o)
 .data          0x0000000000000000        0x0 /opt/devkitpro/devkitARM/bin/../lib/gcc/arm-none-eabi/12.2.0/../../../../arm-none-eabi/lib/libg.a(lib_a-wsetup.o)
 .bss           0x0000000000000000        0x0 /opt/devkitpro/devkitARM/bin/../lib/gcc/arm-none-eabi/12.2.0/../../../../arm-none-eabi/lib/libg.a(lib_a-wsetup.o)
 .text          0x0000000000000000        0x0 /opt/devkitpro/devkitARM/bin/../lib/gcc/arm-none-eabi/12.2.0/../../../../arm-none-eabi/lib/libg.a(lib_a-abort.o)
 .data          0x0000000000000000        0x0 /opt/devkitpro/devkitARM/bin/../lib/gcc/arm-none-eabi/12.2.0/../../../../arm-none-eabi/lib/libg.a(lib_a-abort.o)
 .bss           0x0000000000000000        0x0 /opt/devkitpro/devkitARM/bin/../lib/gcc/arm-none-eabi/12.2.0/../../../../arm-none-eabi/lib/libg.a(lib_a-abort.o)
 .text          0x0000000000000000        0x0 /opt/devkitpro/devkitARM/bin/../lib/gcc/arm-none-eabi/12.2.0/../../../../arm-none-eabi/lib/libg.a(lib_a-__call_atexit.o)
 .data          0x0000000000000000        0x0 /opt/devkitpro/devkitARM/bin/../lib/gcc/arm-none-eabi/12.2.0/../../../../arm-none-eabi/lib/libg.a(lib_a-__call_atexit.o)
 .bss           0x0000000000000000        0x0 /opt/devkitpro/devkitARM/bin/../lib/gcc/arm-none-eabi/12.2.0/../../../../arm-none-eabi/lib/libg.a(lib_a-__call_atexit.o)
 .text          0x0000000000000000        0x0 /opt/devkitpro/devkitARM/bin/../lib/gcc/arm-none-eabi/12.2.0/../../../../arm-none-eabi/lib/libg.a(lib_a-div.o)
 .data          0x0000000000000000        0x0 /opt/devkitpro/devkitARM/bin/../lib/gcc/arm-none-eabi/12.2.0/../../../../arm-none-eabi/lib/libg.a(lib_a-div.o)
 .bss           0x0000000000000000        0x0 /opt/devkitpro/devkitARM/bin/../lib/gcc/arm-none-eabi/12.2.0/../../../../arm-none-eabi/lib/libg.a(lib_a-div.o)
 .text          0x0000000000000000        0x0 /opt/devkitpro/devkitARM/bin/../lib/gcc/arm-none-eabi/12.2.0/../../../../arm-none-eabi/lib/libg.a(lib_a-dtoa.o)
 .data          0x0000000000000000        0x0 /opt/devkitpro/devkitARM/bin/../lib/gcc/arm-none-eabi/12.2.0/../../../../arm-none-eabi/lib/libg.a(lib_a-dtoa.o)
 .bss           0x0000000000000000        0x0 /opt/devkitpro/devkitARM/bin/../lib/gcc/arm-none-eabi/12.2.0/../../../../arm-none-eabi/lib/libg.a(lib_a-dtoa.o)
 .text          0x0000000000000000        0x0 /opt/devkitpro/devkitARM/bin/../lib/gcc/arm-none-eabi/12.2.0/../../../../arm-none-eabi/lib/libg.a(lib_a-flags.o)
 .data          0x0000000000000000        0x0 /opt/devkitpro/devkitARM/bin/../lib/gcc/arm-none-eabi/12.2.0/../../../../arm-none-eabi/lib/libg.a(lib_a-flags.o)
 .bss           0x0000000000000000        0x0 /opt/devkitpro/devkitARM/bin/../lib/gcc/arm-none-eabi/12.2.0/../../../../arm-none-eabi/lib/libg.a(lib_a-flags.o)
 .text          0x0000000000000000        0x0 /opt/devkitpro/devkitARM/bin/../lib/gcc/arm-none-eabi/12.2.0/../../../../arm-none-eabi/lib/libg.a(lib_a-fvwrite.o)
 .data          0x0000000000000000        0x0 /opt/devkitpro/devkitARM/bin/../lib/gcc/arm-none-eabi/12.2.0/../../../../arm-none-eabi/lib/libg.a(lib_a-fvwrite.o)
 .bss           0x0000000000000000        0x0 /opt/devkitpro/devkitARM/bin/../lib/gcc/arm-none-eabi/12.2.0/../../../../arm-none-eabi/lib/libg.a(lib_a-fvwrite.o)
 .text          0x0000000000000000        0x0 /opt/devkitpro/devkitARM/bin/../lib/gcc/arm-none-eabi/12.2.0/../../../../arm-none-eabi/lib/libg.a(lib_a-getenv_r.o)
 .data          0x0000000000000000        0x0 /opt/devkitpro/devkitARM/bin/../lib/gcc/arm-none-eabi/12.2.0/../../../../arm-none-eabi/lib/libg.a(lib_a-getenv_r.o)
 .bss           0x0000000000000000        0x0 /opt/devkitpro/devkitARM/bin/../lib/gcc/arm-none-eabi/12.2.0/../../../../arm-none-eabi/lib/libg.a(lib_a-getenv_r.o)
 .text          0x0000000000000000        0x0 /opt/devkitpro/devkitARM/bin/../lib/gcc/arm-none-eabi/12.2.0/../../../../arm-none-eabi/lib/libg.a(lib_a-gettzinfo.o)
 .data          0x0000000000000000        0x0 /opt/devkitpro/devkitARM/bin/../lib/gcc/arm-none-eabi/12.2.0/../../../../arm-none-eabi/lib/libg.a(lib_a-gettzinfo.o)
 .bss           0x0000000000000000        0x0 /opt/devkitpro/devkitARM/bin/../lib/gcc/arm-none-eabi/12.2.0/../../../../arm-none-eabi/lib/libg.a(lib_a-gettzinfo.o)
 .text          0x0000000000000000        0x0 /opt/devkitpro/devkitARM/bin/../lib/gcc/arm-none-eabi/12.2.0/../../../../arm-none-eabi/lib/libg.a(lib_a-gmtime_r.o)
 .data          0x0000000000000000        0x0 /opt/devkitpro/devkitARM/bin/../lib/gcc/arm-none-eabi/12.2.0/../../../../arm-none-eabi/lib/libg.a(lib_a-gmtime_r.o)
 .bss           0x0000000000000000        0x0 /opt/devkitpro/devkitARM/bin/../lib/gcc/arm-none-eabi/12.2.0/../../../../arm-none-eabi/lib/libg.a(lib_a-gmtime_r.o)
 .text          0x0000000000000000        0x0 /opt/devkitpro/devkitARM/bin/../lib/gcc/arm-none-eabi/12.2.0/../../../../arm-none-eabi/lib/libg.a(lib_a-localeconv.o)
 .data          0x0000000000000000        0x0 /opt/devkitpro/devkitARM/bin/../lib/gcc/arm-none-eabi/12.2.0/../../../../arm-none-eabi/lib/libg.a(lib_a-localeconv.o)
 .bss           0x0000000000000000        0x0 /opt/devkitpro/devkitARM/bin/../lib/gcc/arm-none-eabi/12.2.0/../../../../arm-none-eabi/lib/libg.a(lib_a-localeconv.o)
 .text.__localeconv_l
                0x0000000000000000        0x8 /opt/devkitpro/devkitARM/bin/../lib/gcc/arm-none-eabi/12.2.0/../../../../arm-none-eabi/lib/libg.a(lib_a-localeconv.o)
 .text.localeconv
                0x0000000000000000        0xc /opt/devkitpro/devkitARM/bin/../lib/gcc/arm-none-eabi/12.2.0/../../../../arm-none-eabi/lib/libg.a(lib_a-localeconv.o)
 .text          0x0000000000000000        0x0 /opt/devkitpro/devkitARM/bin/../lib/gcc/arm-none-eabi/12.2.0/../../../../arm-none-eabi/lib/libg.a(lib_a-mbsnrtowcs.o)
 .data          0x0000000000000000        0x0 /opt/devkitpro/devkitARM/bin/../lib/gcc/arm-none-eabi/12.2.0/../../../../arm-none-eabi/lib/libg.a(lib_a-mbsnrtowcs.o)
 .bss           0x0000000000000000        0x0 /opt/devkitpro/devkitARM/bin/../lib/gcc/arm-none-eabi/12.2.0/../../../../arm-none-eabi/lib/libg.a(lib_a-mbsnrtowcs.o)
 .text.mbsnrtowcs
                0x0000000000000000       0x44 /opt/devkitpro/devkitARM/bin/../lib/gcc/arm-none-eabi/12.2.0/../../../../arm-none-eabi/lib/libg.a(lib_a-mbsnrtowcs.o)
 .text          0x0000000000000000        0x0 /opt/devkitpro/devkitARM/bin/../lib/gcc/arm-none-eabi/12.2.0/../../../../arm-none-eabi/lib/libg.a(lib_a-memchr-stub.o)
 .data          0x0000000000000000        0x0 /opt/devkitpro/devkitARM/bin/../lib/gcc/arm-none-eabi/12.2.0/../../../../arm-none-eabi/lib/libg.a(lib_a-memchr-stub.o)
 .bss           0x0000000000000000        0x0 /opt/devkitpro/devkitARM/bin/../lib/gcc/arm-none-eabi/12.2.0/../../../../arm-none-eabi/lib/libg.a(lib_a-memchr-stub.o)
 .text          0x0000000000000000        0x0 /opt/devkitpro/devkitARM/bin/../lib/gcc/arm-none-eabi/12.2.0/../../../../arm-none-eabi/lib/libg.a(lib_a-mprec.o)
 .data          0x0000000000000000        0x0 /opt/devkitpro/devkitARM/bin/../lib/gcc/arm-none-eabi/12.2.0/../../../../arm-none-eabi/lib/libg.a(lib_a-mprec.o)
 .bss           0x0000000000000000        0x0 /opt/devkitpro/devkitARM/bin/../lib/gcc/arm-none-eabi/12.2.0/../../../../arm-none-eabi/lib/libg.a(lib_a-mprec.o)
 .text.__s2b    0x0000000000000000      0x114 /opt/devkitpro/devkitARM/bin/../lib/gcc/arm-none-eabi/12.2.0/../../../../arm-none-eabi/lib/libg.a(lib_a-mprec.o)
 .text.__ulp    0x0000000000000000       0x64 /opt/devkitpro/devkitARM/bin/../lib/gcc/arm-none-eabi/12.2.0/../../../../arm-none-eabi/lib/libg.a(lib_a-mprec.o)
 .text.__b2d    0x0000000000000000       0xf0 /opt/devkitpro/devkitARM/bin/../lib/gcc/arm-none-eabi/12.2.0/../../../../arm-none-eabi/lib/libg.a(lib_a-mprec.o)
 .text.__ratio  0x0000000000000000       0x84 /opt/devkitpro/devkitARM/bin/../lib/gcc/arm-none-eabi/12.2.0/../../../../arm-none-eabi/lib/libg.a(lib_a-mprec.o)
 .text._mprec_log10
                0x0000000000000000       0x5c /opt/devkitpro/devkitARM/bin/../lib/gcc/arm-none-eabi/12.2.0/../../../../arm-none-eabi/lib/libg.a(lib_a-mprec.o)
 .text.__copybits
                0x0000000000000000       0x8c /opt/devkitpro/devkitARM/bin/../lib/gcc/arm-none-eabi/12.2.0/../../../../arm-none-eabi/lib/libg.a(lib_a-mprec.o)
 .text.__any_on
                0x0000000000000000       0x5c /opt/devkitpro/devkitARM/bin/../lib/gcc/arm-none-eabi/12.2.0/../../../../arm-none-eabi/lib/libg.a(lib_a-mprec.o)
 .rodata.__mprec_tinytens
                0x0000000000000000       0x28 /opt/devkitpro/devkitARM/bin/../lib/gcc/arm-none-eabi/12.2.0/../../../../arm-none-eabi/lib/libg.a(lib_a-mprec.o)
 .text          0x0000000000000000        0x0 /opt/devkitpro/devkitARM/bin/../lib/gcc/arm-none-eabi/12.2.0/../../../../arm-none-eabi/lib/libg.a(lib_a-s_frexp.o)
 .data          0x0000000000000000        0x0 /opt/devkitpro/devkitARM/bin/../lib/gcc/arm-none-eabi/12.2.0/../../../../arm-none-eabi/lib/libg.a(lib_a-s_frexp.o)
 .bss           0x0000000000000000        0x0 /opt/devkitpro/devkitARM/bin/../lib/gcc/arm-none-eabi/12.2.0/../../../../arm-none-eabi/lib/libg.a(lib_a-s_frexp.o)
 .text          0x0000000000000000        0x0 /opt/devkitpro/devkitARM/bin/../lib/gcc/arm-none-eabi/12.2.0/../../../../arm-none-eabi/lib/libg.a(lib_a-signal.o)
 .data          0x0000000000000000        0x0 /opt/devkitpro/devkitARM/bin/../lib/gcc/arm-none-eabi/12.2.0/../../../../arm-none-eabi/lib/libg.a(lib_a-signal.o)
 .bss           0x0000000000000000        0x0 /opt/devkitpro/devkitARM/bin/../lib/gcc/arm-none-eabi/12.2.0/../../../../arm-none-eabi/lib/libg.a(lib_a-signal.o)
 .text._init_signal_r
                0x0000000000000000       0x54 /opt/devkitpro/devkitARM/bin/../lib/gcc/arm-none-eabi/12.2.0/../../../../arm-none-eabi/lib/libg.a(lib_a-signal.o)
 .text._signal_r
                0x0000000000000000       0x84 /opt/devkitpro/devkitARM/bin/../lib/gcc/arm-none-eabi/12.2.0/../../../../arm-none-eabi/lib/libg.a(lib_a-signal.o)
 .text.__sigtramp_r
                0x0000000000000000       0xb4 /opt/devkitpro/devkitARM/bin/../lib/gcc/arm-none-eabi/12.2.0/../../../../arm-none-eabi/lib/libg.a(lib_a-signal.o)
 .text.signal   0x0000000000000000       0x7c /opt/devkitpro/devkitARM/bin/../lib/gcc/arm-none-eabi/12.2.0/../../../../arm-none-eabi/lib/libg.a(lib_a-signal.o)
 .text._init_signal
                0x0000000000000000       0x58 /opt/devkitpro/devkitARM/bin/../lib/gcc/arm-none-eabi/12.2.0/../../../../arm-none-eabi/lib/libg.a(lib_a-signal.o)
 .text.__sigtramp
                0x0000000000000000       0x18 /opt/devkitpro/devkitARM/bin/../lib/gcc/arm-none-eabi/12.2.0/../../../../arm-none-eabi/lib/libg.a(lib_a-signal.o)
 .text          0x0000000000000000        0x0 /opt/devkitpro/devkitARM/bin/../lib/gcc/arm-none-eabi/12.2.0/../../../../arm-none-eabi/lib/libg.a(lib_a-siscanf.o)
 .data          0x0000000000000000        0x0 /opt/devkitpro/devkitARM/bin/../lib/gcc/arm-none-eabi/12.2.0/../../../../arm-none-eabi/lib/libg.a(lib_a-siscanf.o)
 .bss           0x0000000000000000        0x0 /opt/devkitpro/devkitARM/bin/../lib/gcc/arm-none-eabi/12.2.0/../../../../arm-none-eabi/lib/libg.a(lib_a-siscanf.o)
 .text._siscanf_r
                0x0000000000000000       0x7c /opt/devkitpro/devkitARM/bin/../lib/gcc/arm-none-eabi/12.2.0/../../../../arm-none-eabi/lib/libg.a(lib_a-siscanf.o)
 .text          0x0000000000000000        0x0 /opt/devkitpro/devkitARM/bin/../lib/gcc/arm-none-eabi/12.2.0/../../../../arm-none-eabi/lib/libg.a(lib_a-strtoul.o)
 .data          0x0000000000000000        0x0 /opt/devkitpro/devkitARM/bin/../lib/gcc/arm-none-eabi/12.2.0/../../../../arm-none-eabi/lib/libg.a(lib_a-strtoul.o)
 .bss           0x0000000000000000        0x0 /opt/devkitpro/devkitARM/bin/../lib/gcc/arm-none-eabi/12.2.0/../../../../arm-none-eabi/lib/libg.a(lib_a-strtoul.o)
 .text.strtoul_l
                0x0000000000000000       0x28 /opt/devkitpro/devkitARM/bin/../lib/gcc/arm-none-eabi/12.2.0/../../../../arm-none-eabi/lib/libg.a(lib_a-strtoul.o)
 .text          0x0000000000000000        0x0 /opt/devkitpro/devkitARM/bin/../lib/gcc/arm-none-eabi/12.2.0/../../../../arm-none-eabi/lib/libg.a(lib_a-svfiprintf.o)
 .data          0x0000000000000000        0x0 /opt/devkitpro/devkitARM/bin/../lib/gcc/arm-none-eabi/12.2.0/../../../../arm-none-eabi/lib/libg.a(lib_a-svfiprintf.o)
 .bss           0x0000000000000000        0x0 /opt/devkitpro/devkitARM/bin/../lib/gcc/arm-none-eabi/12.2.0/../../../../arm-none-eabi/lib/libg.a(lib_a-svfiprintf.o)
 .text.get_arg  0x0000000000000000      0x674 /opt/devkitpro/devkitARM/bin/../lib/gcc/arm-none-eabi/12.2.0/../../../../arm-none-eabi/lib/libg.a(lib_a-svfiprintf.o)
 .rodata._svfiprintf_r.str1.1
                0x0000000000000000       0x29 /opt/devkitpro/devkitARM/bin/../lib/gcc/arm-none-eabi/12.2.0/../../../../arm-none-eabi/lib/libg.a(lib_a-svfiprintf.o)
 .text._svfiprintf_r
                0x0000000000000000     0x2254 /opt/devkitpro/devkitARM/bin/../lib/gcc/arm-none-eabi/12.2.0/../../../../arm-none-eabi/lib/libg.a(lib_a-svfiprintf.o)
 .rodata.zeroes.0
                0x0000000000000000       0x10 /opt/devkitpro/devkitARM/bin/../lib/gcc/arm-none-eabi/12.2.0/../../../../arm-none-eabi/lib/libg.a(lib_a-svfiprintf.o)
 .rodata.blanks.1
                0x0000000000000000       0x10 /opt/devkitpro/devkitARM/bin/../lib/gcc/arm-none-eabi/12.2.0/../../../../arm-none-eabi/lib/libg.a(lib_a-svfiprintf.o)
 .text          0x0000000000000000        0x0 /opt/devkitpro/devkitARM/bin/../lib/gcc/arm-none-eabi/12.2.0/../../../../arm-none-eabi/lib/libg.a(lib_a-svfiscanf.o)
 .data          0x0000000000000000        0x0 /opt/devkitpro/devkitARM/bin/../lib/gcc/arm-none-eabi/12.2.0/../../../../arm-none-eabi/lib/libg.a(lib_a-svfiscanf.o)
 .bss           0x0000000000000000        0x0 /opt/devkitpro/devkitARM/bin/../lib/gcc/arm-none-eabi/12.2.0/../../../../arm-none-eabi/lib/libg.a(lib_a-svfiscanf.o)
 .text          0x0000000000000000        0x0 /opt/devkitpro/devkitARM/bin/../lib/gcc/arm-none-eabi/12.2.0/../../../../arm-none-eabi/lib/libg.a(lib_a-towctrans.o)
 .data          0x0000000000000000        0x0 /opt/devkitpro/devkitARM/bin/../lib/gcc/arm-none-eabi/12.2.0/../../../../arm-none-eabi/lib/libg.a(lib_a-towctrans.o)
 .bss           0x0000000000000000        0x0 /opt/devkitpro/devkitARM/bin/../lib/gcc/arm-none-eabi/12.2.0/../../../../arm-none-eabi/lib/libg.a(lib_a-towctrans.o)
 .text._towctrans_r
                0x0000000000000000       0x2c /opt/devkitpro/devkitARM/bin/../lib/gcc/arm-none-eabi/12.2.0/../../../../arm-none-eabi/lib/libg.a(lib_a-towctrans.o)
 .text          0x0000000000000000        0x0 /opt/devkitpro/devkitARM/bin/../lib/gcc/arm-none-eabi/12.2.0/../../../../arm-none-eabi/lib/libg.a(lib_a-ungetc.o)
 .data          0x0000000000000000        0x0 /opt/devkitpro/devkitARM/bin/../lib/gcc/arm-none-eabi/12.2.0/../../../../arm-none-eabi/lib/libg.a(lib_a-ungetc.o)
 .bss           0x0000000000000000        0x0 /opt/devkitpro/devkitARM/bin/../lib/gcc/arm-none-eabi/12.2.0/../../../../arm-none-eabi/lib/libg.a(lib_a-ungetc.o)
 .text._ungetc_r
                0x0000000000000000      0x220 /opt/devkitpro/devkitARM/bin/../lib/gcc/arm-none-eabi/12.2.0/../../../../arm-none-eabi/lib/libg.a(lib_a-ungetc.o)
 .text.ungetc   0x0000000000000000       0x20 /opt/devkitpro/devkitARM/bin/../lib/gcc/arm-none-eabi/12.2.0/../../../../arm-none-eabi/lib/libg.a(lib_a-ungetc.o)
 .text          0x0000000000000000        0x0 /opt/devkitpro/devkitARM/bin/../lib/gcc/arm-none-eabi/12.2.0/../../../../arm-none-eabi/lib/libg.a(lib_a-wcsnrtombs.o)
 .data          0x0000000000000000        0x0 /opt/devkitpro/devkitARM/bin/../lib/gcc/arm-none-eabi/12.2.0/../../../../arm-none-eabi/lib/libg.a(lib_a-wcsnrtombs.o)
 .bss           0x0000000000000000        0x0 /opt/devkitpro/devkitARM/bin/../lib/gcc/arm-none-eabi/12.2.0/../../../../arm-none-eabi/lib/libg.a(lib_a-wcsnrtombs.o)
 .text.wcsnrtombs
                0x0000000000000000       0x50 /opt/devkitpro/devkitARM/bin/../lib/gcc/arm-none-eabi/12.2.0/../../../../arm-none-eabi/lib/libg.a(lib_a-wcsnrtombs.o)
 .text          0x0000000000000000        0x0 /opt/devkitpro/devkitARM/bin/../lib/gcc/arm-none-eabi/12.2.0/../../../../arm-none-eabi/lib/libg.a(lib_a-environ.o)
 .data          0x0000000000000000        0x0 /opt/devkitpro/devkitARM/bin/../lib/gcc/arm-none-eabi/12.2.0/../../../../arm-none-eabi/lib/libg.a(lib_a-environ.o)
 .bss           0x0000000000000000        0x0 /opt/devkitpro/devkitARM/bin/../lib/gcc/arm-none-eabi/12.2.0/../../../../arm-none-eabi/lib/libg.a(lib_a-environ.o)
 .text          0x0000000000000000        0x0 /opt/devkitpro/devkitARM/bin/../lib/gcc/arm-none-eabi/12.2.0/../../../../arm-none-eabi/lib/libg.a(lib_a-envlock.o)
 .data          0x0000000000000000        0x0 /opt/devkitpro/devkitARM/bin/../lib/gcc/arm-none-eabi/12.2.0/../../../../arm-none-eabi/lib/libg.a(lib_a-envlock.o)
 .bss           0x0000000000000000        0x0 /opt/devkitpro/devkitARM/bin/../lib/gcc/arm-none-eabi/12.2.0/../../../../arm-none-eabi/lib/libg.a(lib_a-envlock.o)
 .text          0x0000000000000000        0x0 /opt/devkitpro/devkitARM/bin/../lib/gcc/arm-none-eabi/12.2.0/../../../../arm-none-eabi/lib/libg.a(lib_a-iswspace.o)
 .data          0x0000000000000000        0x0 /opt/devkitpro/devkitARM/bin/../lib/gcc/arm-none-eabi/12.2.0/../../../../arm-none-eabi/lib/libg.a(lib_a-iswspace.o)
 .bss           0x0000000000000000        0x0 /opt/devkitpro/devkitARM/bin/../lib/gcc/arm-none-eabi/12.2.0/../../../../arm-none-eabi/lib/libg.a(lib_a-iswspace.o)
 .text          0x0000000000000000        0x0 /opt/devkitpro/devkitARM/bin/../lib/gcc/arm-none-eabi/12.2.0/../../../../arm-none-eabi/lib/libg.a(lib_a-sccl.o)
 .data          0x0000000000000000        0x0 /opt/devkitpro/devkitARM/bin/../lib/gcc/arm-none-eabi/12.2.0/../../../../arm-none-eabi/lib/libg.a(lib_a-sccl.o)
 .bss           0x0000000000000000        0x0 /opt/devkitpro/devkitARM/bin/../lib/gcc/arm-none-eabi/12.2.0/../../../../arm-none-eabi/lib/libg.a(lib_a-sccl.o)
 .text          0x0000000000000000        0x0 /opt/devkitpro/devkitARM/bin/../lib/gcc/arm-none-eabi/12.2.0/../../../../arm-none-eabi/lib/libg.a(lib_a-strtoll.o)
 .data          0x0000000000000000        0x0 /opt/devkitpro/devkitARM/bin/../lib/gcc/arm-none-eabi/12.2.0/../../../../arm-none-eabi/lib/libg.a(lib_a-strtoll.o)
 .bss           0x0000000000000000        0x0 /opt/devkitpro/devkitARM/bin/../lib/gcc/arm-none-eabi/12.2.0/../../../../arm-none-eabi/lib/libg.a(lib_a-strtoll.o)
 .text.strtoll_l
                0x0000000000000000       0x28 /opt/devkitpro/devkitARM/bin/../lib/gcc/arm-none-eabi/12.2.0/../../../../arm-none-eabi/lib/libg.a(lib_a-strtoll.o)
 .text.strtoll  0x0000000000000000       0x28 /opt/devkitpro/devkitARM/bin/../lib/gcc/arm-none-eabi/12.2.0/../../../../arm-none-eabi/lib/libg.a(lib_a-strtoll.o)
 .text          0x0000000000000000        0x0 /opt/devkitpro/devkitARM/bin/../lib/gcc/arm-none-eabi/12.2.0/../../../../arm-none-eabi/lib/libg.a(lib_a-strtoull.o)
 .data          0x0000000000000000        0x0 /opt/devkitpro/devkitARM/bin/../lib/gcc/arm-none-eabi/12.2.0/../../../../arm-none-eabi/lib/libg.a(lib_a-strtoull.o)
 .bss           0x0000000000000000        0x0 /opt/devkitpro/devkitARM/bin/../lib/gcc/arm-none-eabi/12.2.0/../../../../arm-none-eabi/lib/libg.a(lib_a-strtoull.o)
 .text.strtoull_l
                0x0000000000000000       0x28 /opt/devkitpro/devkitARM/bin/../lib/gcc/arm-none-eabi/12.2.0/../../../../arm-none-eabi/lib/libg.a(lib_a-strtoull.o)
 .text.strtoull
                0x0000000000000000       0x28 /opt/devkitpro/devkitARM/bin/../lib/gcc/arm-none-eabi/12.2.0/../../../../arm-none-eabi/lib/libg.a(lib_a-strtoull.o)
 .text          0x0000000000000000        0x0 /opt/devkitpro/devkitARM/bin/../lib/gcc/arm-none-eabi/12.2.0/../../../../arm-none-eabi/lib/libg.a(lib_a-towctrans_l.o)
 .data          0x0000000000000000        0x0 /opt/devkitpro/devkitARM/bin/../lib/gcc/arm-none-eabi/12.2.0/../../../../arm-none-eabi/lib/libg.a(lib_a-towctrans_l.o)
 .bss           0x0000000000000000        0x0 /opt/devkitpro/devkitARM/bin/../lib/gcc/arm-none-eabi/12.2.0/../../../../arm-none-eabi/lib/libg.a(lib_a-towctrans_l.o)
 .text          0x0000000000000000        0x0 /opt/devkitpro/devkitARM/bin/../lib/gcc/arm-none-eabi/12.2.0/../../../../arm-none-eabi/lib/libg.a(lib_a-iswspace_l.o)
 .data          0x0000000000000000        0x0 /opt/devkitpro/devkitARM/bin/../lib/gcc/arm-none-eabi/12.2.0/../../../../arm-none-eabi/lib/libg.a(lib_a-iswspace_l.o)
 .bss           0x0000000000000000        0x0 /opt/devkitpro/devkitARM/bin/../lib/gcc/arm-none-eabi/12.2.0/../../../../arm-none-eabi/lib/libg.a(lib_a-iswspace_l.o)
 .text          0x0000000000000000        0x0 /opt/devkitpro/devkitARM/bin/../lib/gcc/arm-none-eabi/12.2.0/../../../../arm-none-eabi/lib/libg.a(lib_a-jp2uc.o)
 .data          0x0000000000000000        0x0 /opt/devkitpro/devkitARM/bin/../lib/gcc/arm-none-eabi/12.2.0/../../../../arm-none-eabi/lib/libg.a(lib_a-jp2uc.o)
 .bss           0x0000000000000000        0x0 /opt/devkitpro/devkitARM/bin/../lib/gcc/arm-none-eabi/12.2.0/../../../../arm-none-eabi/lib/libg.a(lib_a-jp2uc.o)
 .text._jp2uc   0x0000000000000000       0x84 /opt/devkitpro/devkitARM/bin/../lib/gcc/arm-none-eabi/12.2.0/../../../../arm-none-eabi/lib/libg.a(lib_a-jp2uc.o)
 .text          0x0000000000000000        0x0 /opt/devkitpro/devkitARM/bin/../lib/gcc/arm-none-eabi/12.2.0/../../../../arm-none-eabi/lib/libg.a(lib_a-categories.o)
 .data          0x0000000000000000        0x0 /opt/devkitpro/devkitARM/bin/../lib/gcc/arm-none-eabi/12.2.0/../../../../arm-none-eabi/lib/libg.a(lib_a-categories.o)
 .bss           0x0000000000000000        0x0 /opt/devkitpro/devkitARM/bin/../lib/gcc/arm-none-eabi/12.2.0/../../../../arm-none-eabi/lib/libg.a(lib_a-categories.o)
 .text          0x0000000000000000        0x0 /opt/devkitpro/devkitARM/bin/../lib/gcc/arm-none-eabi/12.2.0/../../../../arm-none-eabi/lib/libsysbase.a(iosupport.o)
 .data          0x0000000000000000        0x0 /opt/devkitpro/devkitARM/bin/../lib/gcc/arm-none-eabi/12.2.0/../../../../arm-none-eabi/lib/libsysbase.a(iosupport.o)
 .bss           0x0000000000000000        0x0 /opt/devkitpro/devkitARM/bin/../lib/gcc/arm-none-eabi/12.2.0/../../../../arm-none-eabi/lib/libsysbase.a(iosupport.o)
 .text.RemoveDevice
                0x0000000000000000       0x2c /opt/devkitpro/devkitARM/bin/../lib/gcc/arm-none-eabi/12.2.0/../../../../arm-none-eabi/lib/libsysbase.a(iosupport.o)
 .text          0x0000000000000000        0x0 /opt/devkitpro/devkitARM/bin/../lib/gcc/arm-none-eabi/12.2.0/../../../../arm-none-eabi/lib/libsysbase.a(fstat.o)
 .data          0x0000000000000000        0x0 /opt/devkitpro/devkitARM/bin/../lib/gcc/arm-none-eabi/12.2.0/../../../../arm-none-eabi/lib/libsysbase.a(fstat.o)
 .bss           0x0000000000000000        0x0 /opt/devkitpro/devkitARM/bin/../lib/gcc/arm-none-eabi/12.2.0/../../../../arm-none-eabi/lib/libsysbase.a(fstat.o)
 .text          0x0000000000000000        0x0 /opt/devkitpro/devkitARM/bin/../lib/gcc/arm-none-eabi/12.2.0/../../../../arm-none-eabi/lib/libsysbase.a(getpid.o)
 .data          0x0000000000000000        0x0 /opt/devkitpro/devkitARM/bin/../lib/gcc/arm-none-eabi/12.2.0/../../../../arm-none-eabi/lib/libsysbase.a(getpid.o)
 .bss           0x0000000000000000        0x0 /opt/devkitpro/devkitARM/bin/../lib/gcc/arm-none-eabi/12.2.0/../../../../arm-none-eabi/lib/libsysbase.a(getpid.o)
 .text          0x0000000000000000        0x0 /opt/devkitpro/devkitARM/bin/../lib/gcc/arm-none-eabi/12.2.0/../../../../arm-none-eabi/lib/libsysbase.a(gettod.o)
 .data          0x0000000000000000        0x0 /opt/devkitpro/devkitARM/bin/../lib/gcc/arm-none-eabi/12.2.0/../../../../arm-none-eabi/lib/libsysbase.a(gettod.o)
 .bss           0x0000000000000000        0x0 /opt/devkitpro/devkitARM/bin/../lib/gcc/arm-none-eabi/12.2.0/../../../../arm-none-eabi/lib/libsysbase.a(gettod.o)
 .text          0x0000000000000000        0x0 /opt/devkitpro/devkitARM/bin/../lib/gcc/arm-none-eabi/12.2.0/../../../../arm-none-eabi/lib/libsysbase.a(isatty.o)
 .data          0x0000000000000000        0x0 /opt/devkitpro/devkitARM/bin/../lib/gcc/arm-none-eabi/12.2.0/../../../../arm-none-eabi/lib/libsysbase.a(isatty.o)
 .bss           0x0000000000000000        0x0 /opt/devkitpro/devkitARM/bin/../lib/gcc/arm-none-eabi/12.2.0/../../../../arm-none-eabi/lib/libsysbase.a(isatty.o)
 .text          0x0000000000000000        0x0 /opt/devkitpro/devkitARM/bin/../lib/gcc/arm-none-eabi/12.2.0/../../../../arm-none-eabi/lib/libsysbase.a(kill.o)
 .data          0x0000000000000000        0x0 /opt/devkitpro/devkitARM/bin/../lib/gcc/arm-none-eabi/12.2.0/../../../../arm-none-eabi/lib/libsysbase.a(kill.o)
 .bss           0x0000000000000000        0x0 /opt/devkitpro/devkitARM/bin/../lib/gcc/arm-none-eabi/12.2.0/../../../../arm-none-eabi/lib/libsysbase.a(kill.o)
 .text          0x0000000000000000        0x0 /opt/devkitpro/devkitARM/bin/../lib/gcc/arm-none-eabi/12.2.0/../../../../arm-none-eabi/lib/libsysbase.a(lseek.o)
 .data          0x0000000000000000        0x0 /opt/devkitpro/devkitARM/bin/../lib/gcc/arm-none-eabi/12.2.0/../../../../arm-none-eabi/lib/libsysbase.a(lseek.o)
 .bss           0x0000000000000000        0x0 /opt/devkitpro/devkitARM/bin/../lib/gcc/arm-none-eabi/12.2.0/../../../../arm-none-eabi/lib/libsysbase.a(lseek.o)
 .text          0x0000000000000000        0x0 /opt/devkitpro/devkitARM/bin/../lib/gcc/arm-none-eabi/12.2.0/../../../../arm-none-eabi/lib/libsysbase.a(open.o)
 .data          0x0000000000000000        0x0 /opt/devkitpro/devkitARM/bin/../lib/gcc/arm-none-eabi/12.2.0/../../../../arm-none-eabi/lib/libsysbase.a(open.o)
 .bss           0x0000000000000000        0x0 /opt/devkitpro/devkitARM/bin/../lib/gcc/arm-none-eabi/12.2.0/../../../../arm-none-eabi/lib/libsysbase.a(open.o)
 .text          0x0000000000000000        0x0 /opt/devkitpro/devkitARM/bin/../lib/gcc/arm-none-eabi/12.2.0/../../../../arm-none-eabi/lib/libsysbase.a(read.o)
 .data          0x0000000000000000        0x0 /opt/devkitpro/devkitARM/bin/../lib/gcc/arm-none-eabi/12.2.0/../../../../arm-none-eabi/lib/libsysbase.a(read.o)
 .bss           0x0000000000000000        0x0 /opt/devkitpro/devkitARM/bin/../lib/gcc/arm-none-eabi/12.2.0/../../../../arm-none-eabi/lib/libsysbase.a(read.o)
 .text          0x0000000000000000        0x0 /opt/devkitpro/devkitARM/bin/../lib/gcc/arm-none-eabi/12.2.0/../../../../arm-none-eabi/lib/libsysbase.a(sbrk.o)
 .data          0x0000000000000000        0x0 /opt/devkitpro/devkitARM/bin/../lib/gcc/arm-none-eabi/12.2.0/../../../../arm-none-eabi/lib/libsysbase.a(sbrk.o)
 .bss           0x0000000000000000        0x0 /opt/devkitpro/devkitARM/bin/../lib/gcc/arm-none-eabi/12.2.0/../../../../arm-none-eabi/lib/libsysbase.a(sbrk.o)
 .text          0x0000000000000000        0x0 /opt/devkitpro/devkitARM/bin/../lib/gcc/arm-none-eabi/12.2.0/../../../../arm-none-eabi/lib/libsysbase.a(write.o)
 .data          0x0000000000000000        0x0 /opt/devkitpro/devkitARM/bin/../lib/gcc/arm-none-eabi/12.2.0/../../../../arm-none-eabi/lib/libsysbase.a(write.o)
 .bss           0x0000000000000000        0x0 /opt/devkitpro/devkitARM/bin/../lib/gcc/arm-none-eabi/12.2.0/../../../../arm-none-eabi/lib/libsysbase.a(write.o)
 .text          0x0000000000000000        0x0 /opt/devkitpro/devkitARM/bin/../lib/gcc/arm-none-eabi/12.2.0/../../../../arm-none-eabi/lib/libsysbase.a(_exit.o)
 .data          0x0000000000000000        0x0 /opt/devkitpro/devkitARM/bin/../lib/gcc/arm-none-eabi/12.2.0/../../../../arm-none-eabi/lib/libsysbase.a(_exit.o)
 .bss           0x0000000000000000        0x0 /opt/devkitpro/devkitARM/bin/../lib/gcc/arm-none-eabi/12.2.0/../../../../arm-none-eabi/lib/libsysbase.a(_exit.o)
 .text          0x0000000000000000        0x0 /opt/devkitpro/devkitARM/bin/../lib/gcc/arm-none-eabi/12.2.0/../../../../arm-none-eabi/lib/libsysbase.a(malloc_vars.o)
 .data          0x0000000000000000        0x0 /opt/devkitpro/devkitARM/bin/../lib/gcc/arm-none-eabi/12.2.0/../../../../arm-none-eabi/lib/libsysbase.a(malloc_vars.o)
 .bss           0x0000000000000000        0x0 /opt/devkitpro/devkitARM/bin/../lib/gcc/arm-none-eabi/12.2.0/../../../../arm-none-eabi/lib/libsysbase.a(malloc_vars.o)
 .text          0x0000000000000000        0x0 /opt/devkitpro/devkitARM/bin/../lib/gcc/arm-none-eabi/12.2.0/../../../../arm-none-eabi/lib/libsysbase.a(chdir.o)
 .data          0x0000000000000000        0x0 /opt/devkitpro/devkitARM/bin/../lib/gcc/arm-none-eabi/12.2.0/../../../../arm-none-eabi/lib/libsysbase.a(chdir.o)
 .bss           0x0000000000000000        0x0 /opt/devkitpro/devkitARM/bin/../lib/gcc/arm-none-eabi/12.2.0/../../../../arm-none-eabi/lib/libsysbase.a(chdir.o)
 .rodata.DIRECTORY_PARENT
                0x0000000000000000        0x3 /opt/devkitpro/devkitARM/bin/../lib/gcc/arm-none-eabi/12.2.0/../../../../arm-none-eabi/lib/libsysbase.a(chdir.o)
 .rodata.DIRECTORY_THIS
                0x0000000000000000        0x2 /opt/devkitpro/devkitARM/bin/../lib/gcc/arm-none-eabi/12.2.0/../../../../arm-none-eabi/lib/libsysbase.a(chdir.o)
 .rodata.DIRECTORY_SEPARATOR
                0x0000000000000000        0x2 /opt/devkitpro/devkitARM/bin/../lib/gcc/arm-none-eabi/12.2.0/../../../../arm-none-eabi/lib/libsysbase.a(chdir.o)
 .text          0x0000000000000000        0x0 /opt/devkitpro/devkitARM/bin/../lib/gcc/arm-none-eabi/12.2.0/../../../../arm-none-eabi/lib/libsysbase.a(build_argv.o)
 .data          0x0000000000000000        0x0 /opt/devkitpro/devkitARM/bin/../lib/gcc/arm-none-eabi/12.2.0/../../../../arm-none-eabi/lib/libsysbase.a(build_argv.o)
 .bss           0x0000000000000000        0x0 /opt/devkitpro/devkitARM/bin/../lib/gcc/arm-none-eabi/12.2.0/../../../../arm-none-eabi/lib/libsysbase.a(build_argv.o)
 .text          0x0000000000000000        0x0 /opt/devkitpro/devkitARM/bin/../lib/gcc/arm-none-eabi/12.2.0/../../../../arm-none-eabi/lib/libsysbase.a(flock.o)
 .data          0x0000000000000000        0x0 /opt/devkitpro/devkitARM/bin/../lib/gcc/arm-none-eabi/12.2.0/../../../../arm-none-eabi/lib/libsysbase.a(flock.o)
 .bss           0x0000000000000000        0x0 /opt/devkitpro/devkitARM/bin/../lib/gcc/arm-none-eabi/12.2.0/../../../../arm-none-eabi/lib/libsysbase.a(flock.o)
 .text          0x0000000000000000        0x0 /opt/devkitpro/devkitARM/bin/../lib/gcc/arm-none-eabi/12.2.0/../../../../arm-none-eabi/lib/libsysbase.a(handle_manager.o)
 .data          0x0000000000000000        0x0 /opt/devkitpro/devkitARM/bin/../lib/gcc/arm-none-eabi/12.2.0/../../../../arm-none-eabi/lib/libsysbase.a(handle_manager.o)
 .bss           0x0000000000000000        0x0 /opt/devkitpro/devkitARM/bin/../lib/gcc/arm-none-eabi/12.2.0/../../../../arm-none-eabi/lib/libsysbase.a(handle_manager.o)
 .text.dup      0x0000000000000000       0x94 /opt/devkitpro/devkitARM/bin/../lib/gcc/arm-none-eabi/12.2.0/../../../../arm-none-eabi/lib/libsysbase.a(handle_manager.o)
 .text.dup2     0x0000000000000000      0x138 /opt/devkitpro/devkitARM/bin/../lib/gcc/arm-none-eabi/12.2.0/../../../../arm-none-eabi/lib/libsysbase.a(handle_manager.o)
 .text          0x0000000000000000        0x0 /opt/devkitpro/devkitARM/bin/../lib/gcc/arm-none-eabi/12.2.0/../../../../arm-none-eabi/lib/libsysbase.a(getreent.o)
 .data          0x0000000000000000        0x0 /opt/devkitpro/devkitARM/bin/../lib/gcc/arm-none-eabi/12.2.0/../../../../arm-none-eabi/lib/libsysbase.a(getreent.o)
 .bss           0x0000000000000000        0x0 /opt/devkitpro/devkitARM/bin/../lib/gcc/arm-none-eabi/12.2.0/../../../../arm-none-eabi/lib/libsysbase.a(getreent.o)
 .text          0x0000000000000000        0x0 /opt/devkitpro/devkitARM/bin/../lib/gcc/arm-none-eabi/12.2.0/../../../../arm-none-eabi/lib/libsysbase.a(syscall_support.o)
 .data          0x0000000000000000        0x0 /opt/devkitpro/devkitARM/bin/../lib/gcc/arm-none-eabi/12.2.0/../../../../arm-none-eabi/lib/libsysbase.a(syscall_support.o)
 .bss           0x0000000000000000        0x0 /opt/devkitpro/devkitARM/bin/../lib/gcc/arm-none-eabi/12.2.0/../../../../arm-none-eabi/lib/libsysbase.a(syscall_support.o)
 .text.__libc_lock_init
                0x0000000000000000       0x20 /opt/devkitpro/devkitARM/bin/../lib/gcc/arm-none-eabi/12.2.0/../../../../arm-none-eabi/lib/libsysbase.a(syscall_support.o)
 .text.__libc_lock_try_acquire
                0x0000000000000000       0x28 /opt/devkitpro/devkitARM/bin/../lib/gcc/arm-none-eabi/12.2.0/../../../../arm-none-eabi/lib/libsysbase.a(syscall_support.o)
 .text.__libc_lock_close
                0x0000000000000000       0x20 /opt/devkitpro/devkitARM/bin/../lib/gcc/arm-none-eabi/12.2.0/../../../../arm-none-eabi/lib/libsysbase.a(syscall_support.o)
 .text.__libc_lock_try_acquire_recursive
                0x0000000000000000       0x28 /opt/devkitpro/devkitARM/bin/../lib/gcc/arm-none-eabi/12.2.0/../../../../arm-none-eabi/lib/libsysbase.a(syscall_support.o)
 .text          0x0000000000000000      0x290 /opt/devkitpro/devkitARM/bin/../lib/gcc/arm-none-eabi/12.2.0/libgcc.a(_arm_muldf3.o)
 .data          0x0000000000000000        0x0 /opt/devkitpro/devkitARM/bin/../lib/gcc/arm-none-eabi/12.2.0/libgcc.a(_arm_muldf3.o)
 .bss           0x0000000000000000        0x0 /opt/devkitpro/devkitARM/bin/../lib/gcc/arm-none-eabi/12.2.0/libgcc.a(_arm_muldf3.o)
 .ARM.attributes
                0x0000000000000000       0x1c /opt/devkitpro/devkitARM/bin/../lib/gcc/arm-none-eabi/12.2.0/libgcc.a(_arm_muldf3.o)
 .data          0x0000000000000000        0x0 /opt/devkitpro/devkitARM/bin/../lib/gcc/arm-none-eabi/12.2.0/libgcc.a(_arm_addsubdf3.o)
 .bss           0x0000000000000000        0x0 /opt/devkitpro/devkitARM/bin/../lib/gcc/arm-none-eabi/12.2.0/libgcc.a(_arm_addsubdf3.o)
 .data          0x0000000000000000        0x0 /opt/devkitpro/devkitARM/bin/../lib/gcc/arm-none-eabi/12.2.0/libgcc.a(_arm_muldivdf3.o)
 .bss           0x0000000000000000        0x0 /opt/devkitpro/devkitARM/bin/../lib/gcc/arm-none-eabi/12.2.0/libgcc.a(_arm_muldivdf3.o)
 .data          0x0000000000000000        0x0 /opt/devkitpro/devkitARM/bin/../lib/gcc/arm-none-eabi/12.2.0/libgcc.a(_arm_cmpdf2.o)
 .bss           0x0000000000000000        0x0 /opt/devkitpro/devkitARM/bin/../lib/gcc/arm-none-eabi/12.2.0/libgcc.a(_arm_cmpdf2.o)
 .data          0x0000000000000000        0x0 /opt/devkitpro/devkitARM/bin/../lib/gcc/arm-none-eabi/12.2.0/libgcc.a(_arm_unorddf2.o)
 .bss           0x0000000000000000        0x0 /opt/devkitpro/devkitARM/bin/../lib/gcc/arm-none-eabi/12.2.0/libgcc.a(_arm_unorddf2.o)
 .data          0x0000000000000000        0x0 /opt/devkitpro/devkitARM/bin/../lib/gcc/arm-none-eabi/12.2.0/libgcc.a(_arm_fixdfsi.o)
 .bss           0x0000000000000000        0x0 /opt/devkitpro/devkitARM/bin/../lib/gcc/arm-none-eabi/12.2.0/libgcc.a(_arm_fixdfsi.o)
 .data          0x0000000000000000        0x0 /opt/devkitpro/devkitARM/bin/../lib/gcc/arm-none-eabi/12.2.0/libgcc.a(_aeabi_uldivmod.o)
 .bss           0x0000000000000000        0x0 /opt/devkitpro/devkitARM/bin/../lib/gcc/arm-none-eabi/12.2.0/libgcc.a(_aeabi_uldivmod.o)
 .text          0x0000000000000000        0x0 /opt/devkitpro/devkitARM/bin/../lib/gcc/arm-none-eabi/12.2.0/crtend.o
 .data          0x0000000000000000        0x0 /opt/devkitpro/devkitARM/bin/../lib/gcc/arm-none-eabi/12.2.0/crtend.o
 .bss           0x0000000000000000        0x0 /opt/devkitpro/devkitARM/bin/../lib/gcc/arm-none-eabi/12.2.0/crtend.o
 .rodata.all_implied_fbits
                0x0000000000000000       0x24 /opt/devkitpro/devkitARM/bin/../lib/gcc/arm-none-eabi/12.2.0/crtend.o
 .text          0x0000000000000000        0x0 /opt/devkitpro/devkitARM/bin/../lib/gcc/arm-none-eabi/12.2.0/crtn.o
 .data          0x0000000000000000        0x0 /opt/devkitpro/devkitARM/bin/../lib/gcc/arm-none-eabi/12.2.0/crtn.o
 .bss           0x0000000000000000        0x0 /opt/devkitpro/devkitARM/bin/../lib/gcc/arm-none-eabi/12.2.0/crtn.o

Memory Configuration

Name             Origin             Length             Attributes
ewram            0x0000000002000000 0x0000000000380000
dtcm             0x0000000002ff0000 0x0000000000004000
vectors          0x0000000001000000 0x0000000000000100
itcm             0x0000000001000100 0x0000000000007f00
*default*        0x0000000000000000 0xffffffffffffffff

Linker script and memory map

                0x0000000002380000                __ewram_end = (ORIGIN (ewram) + LENGTH (ewram))
                0x0000000002380000                __eheap_end = (ORIGIN (ewram) + LENGTH (ewram))
                0x0000000002ff4000                __dtcm_top = (ORIGIN (dtcm) + LENGTH (dtcm))
                0x0000000002ff3ff8                __irq_flags = (__dtcm_top - 0x8)
                0x0000000002ff3ffc                __irq_vector = (__dtcm_top - 0x4)
                0x0000000002ff3f00                __sp_svc = (__dtcm_top - 0x100)
                0x0000000002ff3e00                __sp_irq = (__sp_svc - 0x100)
                0x0000000002ff3d00                __sp_usr = (__sp_irq - 0x100)

.secure         0x0000000002000000      0x800
 *(.secure)
 .secure        0x0000000002000000      0x800 /opt/devkitpro/libnds/lib/libnds9.a(securearea.o)
                0x0000000002000000                __secure_area__

.crt0           0x0000000002000800      0x300
                0x0000000002000800                __text_start = .
 *(.crt0)
 .crt0          0x0000000002000800      0x300 /opt/devkitpro/devkitARM/bin/../lib/gcc/arm-none-eabi/12.2.0/../../../../arm-none-eabi/lib/ds_arm9_crt0.o
                0x0000000002000800                _start
                0x0000000002000b00                . = ALIGN (0x4)

.plt
 *(.plt)

.init           0x0000000002000b00       0x18
 *(SORT_NONE(.init))
 .init          0x0000000002000b00        0xc /opt/devkitpro/devkitARM/bin/../lib/gcc/arm-none-eabi/12.2.0/crti.o
                0x0000000002000b00                _init
 .init          0x0000000002000b0c        0xc /opt/devkitpro/devkitARM/bin/../lib/gcc/arm-none-eabi/12.2.0/crtn.o

.text           0x0000000002000b40    0x323b0
 *(EXCLUDE_FILE(*.twl* *.vectors* *.itcm*) .text)
 .text          0x0000000002000b40      0x56c ../menu/src/MainMenu.o
                0x0000000002000b40                MainMenu_initStateCallback
                0x0000000002000c60                MainMenu_initialPaintCallback
                0x0000000002000c64                MainMenu_repaintCallback
                0x0000000002000f08                MainMenu_tickCallback
                0x000000000200106c                MainMenu_unloadStateCallback
 .text          0x00000000020010ac      0xc20 ../menu/src/Crawler.o
                0x00000000020010ac                Crawler_initStateCallback
                0x00000000020012ec                Crawler_initialPaintCallback
                0x00000000020012f0                Crawler_repaintCallback
                0x00000000020019b8                Crawler_tickCallback
                0x0000000002001ca4                Crawler_unloadStateCallback
 .text          0x0000000002001ccc      0x4b8 ../menu/src/HelpScreen.o
                0x0000000002001ccc                HelpScreen_initStateCallback
                0x0000000002001d50                HelpScreen_initialPaintCallback
                0x0000000002001d54                HelpScreen_repaintCallback
                0x0000000002002030                HelpScreen_tickCallback
                0x0000000002002180                HelpScreen_unloadStateCallback
 .text          0x0000000002002184      0x334 ../menu/src/BattleScreen.o
                0x0000000002002184                BattleScreen_initStateCallback
                0x00000000020021fc                BattleScreen_initialPaintCallback
                0x000000000200222c                BattleScreen_repaintCallback
                0x0000000002002388                BattleScreen_tickCallback
                0x0000000002002490                BattleScreen_unloadStateCallback
 .text          0x00000000020024b8      0x92c ../menu/src/CreditsScreen.o
                0x00000000020024b8                CreditsScreen_initStateCallback
                0x0000000002002594                CreditsScreen_initialPaintCallback
                0x0000000002002598                CreditsScreen_repaintCallback
                0x0000000002002c60                CreditsScreen_tickCallback
                0x0000000002002db4                CreditsScreen_unloadStateCallback
 .text          0x0000000002002de4      0x76c ../menu/src/GameMenu.o
                0x0000000002002de4                GameMenu_initStateCallback
                0x00000000020030d4                GameMenu_initialPaintCallback
                0x00000000020030d8                GameMenu_repaintCallback
                0x00000000020033a4                GameMenu_tickCallback
                0x0000000002003528                GameMenu_unloadStateCallback
 .text          0x0000000002003550      0x3a4 ../menu/src/Engine.o
                0x0000000002003550                countLines
                0x00000000020035a0                enterState
                0x0000000002003854                menuTick
 .text          0x00000000020038f4      0x1dc ../base3d/src/nitro/NitroGLRenderer.o
                0x00000000020038f4                graphicsInit
                0x0000000002003954                handleSystemEvents
                0x0000000002003ab8                graphicsShutdown
                0x0000000002003acc                flipRenderer
 .text          0x0000000002003ad0      0x110 ../base3d/src/CTile3DProperties.o
                0x0000000002003ad0                loadPropertyList
 .text          0x0000000002003be0      0x6d8 ../GL1Common/LoadBitmapGL1.o
                0x0000000002003be0                scaleBitmap
                0x0000000002003e14                submitBitmapToGPU
                0x0000000002003fc8                loadBitmap
                0x00000000020041dc                releaseBitmap
                0x0000000002004228                lerpFix
                0x000000000200426c                lerpInt
 .text          0x00000000020042b8     0x1d4c ../GL1Common/RendererGL1.o
                0x00000000020042b8                printMessageTo3DView
                0x00000000020042e0                getPaletteEntry
                0x00000000020042e4                enter2D
                0x0000000002004534                initGL
                0x000000000200457c                clearRenderer
                0x0000000002004590                startFrameGL
                0x000000000200460c                endFrameGL
                0x000000000200461c                setPerspective
                0x00000000020048b0                enter3D
                0x0000000002004afc                loadTileProperties
                0x0000000002004be0                loadTexturesForLevel
                0x0000000002004ca4                updateCursorForRenderer
                0x0000000002004cd4                drawMap
                0x0000000002004fd0                getInput
                0x0000000002004fe8                render
 .text          0x0000000002006004     0x16b0 ../GL1Common/Renderer_RasterizationGL1.o
                0x0000000002006004                maskWall
                0x0000000002006008                drawWall
                0x000000000200600c                drawMask
                0x0000000002006010                maskFloor
                0x0000000002006014                drawFloor
                0x0000000002006018                drawRect
                0x0000000002006230                fillTriangle
                0x0000000002006234                drawTexturedTriangle
                0x0000000002006238                fill
                0x00000000020068ec                drawBitmap
                0x0000000002006cf8                drawRepeatBitmap
                0x0000000002007164                drawTextAt
                0x0000000002007698                drawTextAtWithMarginWithFiltering
                0x00000000020076a4                drawTextAtWithMargin
                0x00000000020076b0                renderPageFlip
 .text          0x00000000020076b4     0x27b4 ../GL1Common/Renderer_TesselationGL1.o
                0x00000000020076b4                clearTextures
                0x00000000020076c8                makeTextureFrom
                0x0000000002007704                drawRampAt
                0x0000000002007de0                drawBillboardAt
                0x0000000002008120                drawColumnAt
                0x0000000002008c30                drawFloorAt
                0x0000000002008fa4                drawCeilingAt
                0x0000000002009320                drawLeftNear
                0x00000000020098c4                drawRightNear
 .text          0x0000000002009e68      0x404 ../base3d/src/VisibilityStrategy.o
                0x0000000002009e68                isValid
                0x0000000002009e88                transform
                0x0000000002009f48                castVisibility
 .text          0x000000000200a26c       0x3c ../../common/src/Vec.o
                0x000000000200a26c                initVec2i
                0x000000000200a278                initVec3
                0x000000000200a280                addToVec3
 .text          0x000000000200a2a8      0x1a4 ../../common/src/Common.o
                0x000000000200a2a8                clearVector
                0x000000000200a310                initVector
                0x000000000200a338                removeFromVector
                0x000000000200a3e0                pushVector
                0x000000000200a440                isBigEndian
                0x000000000200a448                toNativeEndianess
 .text          0x000000000200a44c       0x1c ../../common/src/MapWithCharKey.o
                0x000000000200a44c                getFromMap
                0x000000000200a454                setInMap
                0x000000000200a45c                clearMap
 .text          0x000000000200a468      0x63c ../../common/src/PackedFileReader.o
                0x000000000200a468                initFileReader
                0x000000000200a490                sizeOfFile
                0x000000000200a680                loadBinaryFileFromPath
                0x000000000200a8c0                openBinaryFileFromPath
 .text          0x000000000200aaa4      0x598 ../base3d/src/Events.o
                0x000000000200aaa4                clearMapCache
                0x000000000200aae4                onLevelLoaded
                0x000000000200ab58                tickMission
                0x000000000200abc8                setElement
                0x000000000200abe0                setActor
                0x000000000200abf8                setItem
                0x000000000200ac0c                loadMap
                0x000000000200ad30                renderTick
                0x000000000200ad34                loopTick
                0x000000000200af1c                initRoom
 .text          0x000000000200b03c      0x14c ../base3d/src/EDirection_Utils.o
                0x000000000200b03c                mapOffsetForDirection
                0x000000000200b0f0                leftOf
                0x000000000200b108                rightOf
                0x000000000200b148                oppositeOf
 .text          0x000000000200b188       0x14 ../SoundSystem/NullMusic.o
                0x000000000200b188                setupOPL2
                0x000000000200b18c                stopSounds
                0x000000000200b190                playSound
                0x000000000200b194                soundTick
                0x000000000200b198                muteSound
 .text          0x000000000200b19c      0xc30 ../base3d/src/Dungeon.o
                0x000000000200b19c                isPositionAllowed
                0x000000000200b1d8                dungeon_tick
                0x000000000200bbfc                dungeon_loadMap
 .text          0x000000000200bdcc      0x5b0 ../menu/src/UI.o
                0x000000000200bdcc                drawWindow
                0x000000000200beac                drawAppearingWindow
                0x000000000200c048                drawTextWindow
                0x000000000200c084                drawImageWindow
                0x000000000200c188                redrawHUD
 .text          0x000000000200c37c      0x630 ../menu/src/HackingScreen.o
                0x000000000200c37c                HackingScreen_initStateCallback
                0x000000000200c41c                HackingScreen_initialPaintCallback
                0x000000000200c420                HackingScreen_repaintCallback
                0x000000000200c7ac                HackingScreen_tickCallback
                0x000000000200c990                HackingScreen_unloadStateCallback
 .text          0x000000000200c9ac     0x12b8 ../../core/src/Derelict.o
                0x000000000200c9ac                useRegularFlush
                0x000000000200c9c4                cantBeUsedCallback
                0x000000000200c9dc                cantBeUsedWithOthersCallback
                0x000000000200c9f4                cantToggleCallback
                0x000000000200ca0c                useObjectToggleCallback
                0x000000000200ca28                useBootsWithMagneticCoupling
                0x000000000200ca84                useCloggedFlush
                0x000000000200cad0                reactorValveCallback
                0x000000000200cad8                useComputerRack
                0x000000000200cb34                useCardWithCardWriter
                0x000000000200cbb8                bombActivatedCallback
                0x000000000200cc3c                elevatorGoDownCallback
                0x000000000200cd00                elevatorGoUpCallback
                0x000000000200cdc4                useCommWithRank
                0x000000000200ce20                keycardDropCallback
                0x000000000200ce8c                keycardPickCallback
                0x000000000200cef8                bombControllerActivatedCallback
                0x000000000200cf7c                updateRankFromKeycards
                0x000000000200cfe8                initStation
 .text          0x000000000200dc64     0x1560 ../../core/src/Core.o
                0x000000000200dc64                writeToLog
                0x000000000200dc74                addItem
                0x000000000200dcd0                addRoom
                0x000000000200dd68                setErrorHandlerCallback
                0x000000000200dd78                getPlayerPosition
                0x000000000200dd84                setPlayerPosition
                0x000000000200dda0                isCloseToObject
                0x000000000200dddc                getGameStatus
                0x000000000200ddec                getPlayerItems
                0x000000000200de00                getItemNamed
                0x000000000200de64                getRoomByName
                0x000000000200ded0                addObjectToList
                0x000000000200df38                removeObjectFromList
                0x000000000200df78                removeObjectFromRoom
                0x000000000200dfe8                addObjectToRoom
                0x000000000200e0d8                dropObjectToRoom
                0x000000000200e198                pickObject
                0x000000000200e2d8                getPlayerRank
                0x000000000200e2e8                setPlayerRank
                0x000000000200e2f8                moveBy
                0x000000000200e6cc                pickObjectByName
                0x000000000200e748                dropObjectByName
                0x000000000200e7d0                hasItemInRoom
                0x000000000200e8d4                playerHasObject
                0x000000000200e934                isPlayerAtRoom
                0x000000000200e96c                getRoomDescription
                0x000000000200e990                getRoom
                0x000000000200e9a4                getItem
                0x000000000200e9b8                getPlayerRoom
                0x000000000200e9c8                useObjectNamed
                0x000000000200ea94                walkTo
                0x000000000200eb50                infoAboutItemNamed
                0x000000000200ec64                useObjectsTogether
                0x000000000200ee20                turnLeft
                0x000000000200ee48                turnRight
                0x000000000200ee64                setPlayerLocation
                0x000000000200ee74                walkBy
                0x000000000200f04c                getPlayerDirection
                0x000000000200f05c                addToRoom
                0x000000000200f10c                setLoggerDelegate
                0x000000000200f11c                setPlayerDirection
                0x000000000200f12c                setGameStatus
                0x000000000200f13c                initCore
 .text          0x000000000200f1c4      0x214 ../../core/src/Parser.o
                0x000000000200f1c4                parseCommand
 *fill*         0x000000000200f3d8       0x28 ff
 .text          0x000000000200f400     0x4000 /opt/devkitpro/libnds/lib/libnds9.a(dldi_stub.o)
                0x000000000200f400                _io_dldi_stub
 .text          0x0000000002013400      0x114 /opt/devkitpro/devkitARM/bin/../lib/gcc/arm-none-eabi/12.2.0/libgcc.a(_udivsi3.o)
                0x0000000002013400                __udivsi3
                0x0000000002013400                __aeabi_uidiv
                0x00000000020134f4                __aeabi_uidivmod
 .text          0x0000000002013514      0x148 /opt/devkitpro/devkitARM/bin/../lib/gcc/arm-none-eabi/12.2.0/libgcc.a(_divsi3.o)
                0x0000000002013514                __aeabi_idiv
                0x0000000002013514                __divsi3
                0x000000000201363c                __aeabi_idivmod
 .text          0x000000000201365c        0x4 /opt/devkitpro/devkitARM/bin/../lib/gcc/arm-none-eabi/12.2.0/libgcc.a(_dvmd_tls.o)
                0x000000000201365c                __aeabi_ldiv0
                0x000000000201365c                __aeabi_idiv0
 .text          0x0000000002013660      0x2ac /opt/devkitpro/devkitARM/bin/../lib/gcc/arm-none-eabi/12.2.0/libgcc.a(_arm_addsubsf3.o)
                0x0000000002013660                __aeabi_frsub
                0x0000000002013668                __aeabi_fsub
                0x0000000002013668                __subsf3
                0x000000000201366c                __aeabi_fadd
                0x000000000201366c                __addsf3
                0x0000000002013828                __aeabi_ui2f
                0x0000000002013828                __floatunsisf
                0x0000000002013830                __floatsisf
                0x0000000002013830                __aeabi_i2f
                0x0000000002013850                __aeabi_ul2f
                0x0000000002013850                __floatundisf
                0x0000000002013860                __aeabi_l2f
                0x0000000002013860                __floatdisf
 .text          0x000000000201390c      0x2f8 /opt/devkitpro/devkitARM/bin/../lib/gcc/arm-none-eabi/12.2.0/libgcc.a(_arm_muldivsf3.o)
                0x000000000201390c                __mulsf3
                0x000000000201390c                __aeabi_fmul
                0x0000000002013aa4                __divsf3
                0x0000000002013aa4                __aeabi_fdiv
 .text          0x0000000002013c04       0x5c /opt/devkitpro/devkitARM/bin/../lib/gcc/arm-none-eabi/12.2.0/libgcc.a(_arm_fixsfsi.o)
                0x0000000002013c04                __fixsfsi
                0x0000000002013c04                __aeabi_f2iz
 .text          0x0000000002013c60       0x54 /opt/devkitpro/devkitARM/bin/../lib/gcc/arm-none-eabi/12.2.0/libgcc.a(_arm_fixunssfsi.o)
                0x0000000002013c60                __aeabi_f2uiz
                0x0000000002013c60                __fixunssfsi
 .text          0x0000000002013cb4       0xd4 /opt/devkitpro/devkitARM/bin/../lib/gcc/arm-none-eabi/12.2.0/libgcc.a(_aeabi_ldivmod.o)
                0x0000000002013cb4                __aeabi_ldivmod
 .text          0x0000000002013d88       0x28 /opt/devkitpro/devkitARM/bin/../lib/gcc/arm-none-eabi/12.2.0/libgcc.a(_clzdi2.o)
                0x0000000002013d88                __clzdi2
 .text          0x0000000002013db0       0x48 /opt/devkitpro/devkitARM/bin/../lib/gcc/arm-none-eabi/12.2.0/libgcc.a(_clzsi2.o)
                0x0000000002013db0                __clzsi2
 .text          0x0000000002013df8      0x224 /opt/devkitpro/devkitARM/bin/../lib/gcc/arm-none-eabi/12.2.0/../../../../arm-none-eabi/lib/libg.a(lib_a-strcmp.o)
                0x0000000002013df8                strcmp
 .text          0x000000000201401c      0x424 /opt/devkitpro/devkitARM/bin/../lib/gcc/arm-none-eabi/12.2.0/libgcc.a(_arm_addsubdf3.o)
                0x000000000201401c                __aeabi_drsub
                0x0000000002014024                __subdf3
                0x0000000002014024                __aeabi_dsub
                0x0000000002014028                __aeabi_dadd
                0x0000000002014028                __adddf3
                0x0000000002014338                __aeabi_ui2d
                0x0000000002014338                __floatunsidf
                0x000000000201435c                __floatsidf
                0x000000000201435c                __aeabi_i2d
                0x0000000002014384                __extendsfdf2
                0x0000000002014384                __aeabi_f2d
                0x00000000020143cc                __aeabi_ul2d
                0x00000000020143cc                __floatundidf
                0x00000000020143e0                __aeabi_l2d
                0x00000000020143e0                __floatdidf
 .text          0x0000000002014440      0x49c /opt/devkitpro/devkitARM/bin/../lib/gcc/arm-none-eabi/12.2.0/libgcc.a(_arm_muldivdf3.o)
                0x0000000002014440                __aeabi_dmul
                0x0000000002014440                __muldf3
                0x00000000020146d0                __aeabi_ddiv
                0x00000000020146d0                __divdf3
 .text          0x00000000020148dc      0x144 /opt/devkitpro/devkitARM/bin/../lib/gcc/arm-none-eabi/12.2.0/libgcc.a(_arm_cmpdf2.o)
                0x00000000020148dc                __gedf2
                0x00000000020148dc                __gtdf2
                0x00000000020148e4                __ledf2
                0x00000000020148e4                __ltdf2
                0x00000000020148ec                __cmpdf2
                0x00000000020148ec                __eqdf2
                0x00000000020148ec                __nedf2
                0x0000000002014974                __aeabi_cdrcmple
                0x0000000002014990                __aeabi_cdcmple
                0x0000000002014990                __aeabi_cdcmpeq
                0x00000000020149a8                __aeabi_dcmpeq
                0x00000000020149c0                __aeabi_dcmplt
                0x00000000020149d8                __aeabi_dcmple
                0x00000000020149f0                __aeabi_dcmpge
                0x0000000002014a08                __aeabi_dcmpgt
 .text          0x0000000002014a20       0x38 /opt/devkitpro/devkitARM/bin/../lib/gcc/arm-none-eabi/12.2.0/libgcc.a(_arm_unorddf2.o)
                0x0000000002014a20                __aeabi_dcmpun
                0x0000000002014a20                __unorddf2
 .text          0x0000000002014a58       0x5c /opt/devkitpro/devkitARM/bin/../lib/gcc/arm-none-eabi/12.2.0/libgcc.a(_arm_fixdfsi.o)
                0x0000000002014a58                __fixdfsi
                0x0000000002014a58                __aeabi_d2iz
 .text          0x0000000002014ab4       0x3c /opt/devkitpro/devkitARM/bin/../lib/gcc/arm-none-eabi/12.2.0/libgcc.a(_aeabi_uldivmod.o)
                0x0000000002014ab4                __aeabi_uldivmod
 *(EXCLUDE_FILE(*.twl* *.vectors* *.itcm*) .stub)
 *(EXCLUDE_FILE(*.twl* *.vectors* *.itcm*) .text.*)
 .text.__do_global_dtors_aux
                0x0000000002014af0       0x40 /opt/devkitpro/devkitARM/bin/../lib/gcc/arm-none-eabi/12.2.0/crtbegin.o
 .text.frame_dummy
                0x0000000002014b30       0x30 /opt/devkitpro/devkitARM/bin/../lib/gcc/arm-none-eabi/12.2.0/crtbegin.o
 .text.startup  0x0000000002014b60       0xd8 ../menu/src/Main.o
                0x0000000002014b60                main
 .text.nitroFSDirClose
                0x0000000002014c38        0x4 /opt/devkitpro/libnds/lib/libfilesystem.a(nitrofs.o)
 .text.nitroFSSeek
                0x0000000002014c3c       0x78 /opt/devkitpro/libnds/lib/libfilesystem.a(nitrofs.o)
 .text.nitroFSFstat
                0x0000000002014cb4       0x10 /opt/devkitpro/libnds/lib/libfilesystem.a(nitrofs.o)
 .text.nitroSubReadBlock
                0x0000000002014cc4       0x54 /opt/devkitpro/libnds/lib/libfilesystem.a(nitrofs.o)
 .text.nitroSubReadCard
                0x0000000002014d18       0xb0 /opt/devkitpro/libnds/lib/libfilesystem.a(nitrofs.o)
 .text.nitroFSClose
                0x0000000002014dc8        0x4 /opt/devkitpro/libnds/lib/libfilesystem.a(nitrofs.o)
 .text.nitroDirReset
                0x0000000002014dcc       0x9c /opt/devkitpro/libnds/lib/libfilesystem.a(nitrofs.o)
 .text.nitroFSRead
                0x0000000002014e68       0xbc /opt/devkitpro/libnds/lib/libfilesystem.a(nitrofs.o)
 .text.nitroFSDirNext
                0x0000000002014f24      0x30c /opt/devkitpro/libnds/lib/libfilesystem.a(nitrofs.o)
 .text.nitroFSDirOpen
                0x0000000002015230       0xe0 /opt/devkitpro/libnds/lib/libfilesystem.a(nitrofs.o)
 .text.nitroFSChdir
                0x0000000002015310       0x30 /opt/devkitpro/libnds/lib/libfilesystem.a(nitrofs.o)
 .text.nitroFSOpen
                0x0000000002015340       0xc4 /opt/devkitpro/libnds/lib/libfilesystem.a(nitrofs.o)
 .text.nitroFSstat
                0x0000000002015404       0x68 /opt/devkitpro/libnds/lib/libfilesystem.a(nitrofs.o)
 .text.nitroFSInit
                0x000000000201546c      0x12c /opt/devkitpro/libnds/lib/libfilesystem.a(nitrofs.o)
                0x000000000201546c                nitroFSInit
 .text.fatMount.part.0
                0x0000000002015598       0xa0 /opt/devkitpro/libnds/lib/libfat.a(libfat.o)
 .text.fatMount
                0x0000000002015638       0x3c /opt/devkitpro/libnds/lib/libfat.a(libfat.o)
                0x0000000002015638                fatMount
 .text.fatInit  0x0000000002015674      0x130 /opt/devkitpro/libnds/lib/libfat.a(libfat.o)
                0x0000000002015674                fatInit
 .text.fatInitDefault
                0x00000000020157a4        0xc /opt/devkitpro/libnds/lib/libfat.a(libfat.o)
                0x00000000020157a4                fatInitDefault
 .text._FAT_check_position_for_next_cluster.part.0
                0x00000000020157b0       0x68 /opt/devkitpro/libnds/lib/libfat.a(fatfile.o)
 .text._FAT_syncToDisc.part.0
                0x0000000002015818       0xd4 /opt/devkitpro/libnds/lib/libfat.a(fatfile.o)
 .text._FAT_file_extend_r
                0x00000000020158ec      0x208 /opt/devkitpro/libnds/lib/libfat.a(fatfile.o)
 .text._FAT_open_r
                0x0000000002015af4      0x2d4 /opt/devkitpro/libnds/lib/libfat.a(fatfile.o)
                0x0000000002015af4                _FAT_open_r
 .text._FAT_close_r
                0x0000000002015dc8       0x74 /opt/devkitpro/libnds/lib/libfat.a(fatfile.o)
                0x0000000002015dc8                _FAT_close_r
 .text._FAT_read_r
                0x0000000002015e3c      0x398 /opt/devkitpro/libnds/lib/libfat.a(fatfile.o)
                0x0000000002015e3c                _FAT_read_r
 .text._FAT_write_r
                0x00000000020161d4      0x53c /opt/devkitpro/libnds/lib/libfat.a(fatfile.o)
                0x00000000020161d4                _FAT_write_r
 .text._FAT_seek_r
                0x0000000002016710      0x194 /opt/devkitpro/libnds/lib/libfat.a(fatfile.o)
                0x0000000002016710                _FAT_seek_r
 .text._FAT_fstat_r
                0x00000000020168a4       0x8c /opt/devkitpro/libnds/lib/libfat.a(fatfile.o)
                0x00000000020168a4                _FAT_fstat_r
 .text._FAT_ftruncate_r
                0x0000000002016930      0x16c /opt/devkitpro/libnds/lib/libfat.a(fatfile.o)
                0x0000000002016930                _FAT_ftruncate_r
 .text._FAT_fsync_r
                0x0000000002016a9c       0x44 /opt/devkitpro/libnds/lib/libfat.a(fatfile.o)
                0x0000000002016a9c                _FAT_fsync_r
 .text._FAT_cache_getPage
                0x0000000002016ae0       0xf0 /opt/devkitpro/libnds/lib/libfat.a(cache.o)
 .text._FAT_cache_constructor
                0x0000000002016bd0       0x90 /opt/devkitpro/libnds/lib/libfat.a(cache.o)
                0x0000000002016bd0                _FAT_cache_constructor
 .text._FAT_cache_readSectors
                0x0000000002016c60       0x60 /opt/devkitpro/libnds/lib/libfat.a(cache.o)
                0x0000000002016c60                _FAT_cache_readSectors
 .text._FAT_cache_readPartialSector
                0x0000000002016cc0       0x3c /opt/devkitpro/libnds/lib/libfat.a(cache.o)
                0x0000000002016cc0                _FAT_cache_readPartialSector
 .text._FAT_cache_readLittleEndianValue
                0x0000000002016cfc       0x70 /opt/devkitpro/libnds/lib/libfat.a(cache.o)
                0x0000000002016cfc                _FAT_cache_readLittleEndianValue
 .text._FAT_cache_writePartialSector
                0x0000000002016d6c       0x4c /opt/devkitpro/libnds/lib/libfat.a(cache.o)
                0x0000000002016d6c                _FAT_cache_writePartialSector
 .text._FAT_cache_writeLittleEndianValue
                0x0000000002016db8       0x8c /opt/devkitpro/libnds/lib/libfat.a(cache.o)
                0x0000000002016db8                _FAT_cache_writeLittleEndianValue
 .text._FAT_cache_eraseWritePartialSector
                0x0000000002016e44       0x60 /opt/devkitpro/libnds/lib/libfat.a(cache.o)
                0x0000000002016e44                _FAT_cache_eraseWritePartialSector
 .text._FAT_cache_writeSectors
                0x0000000002016ea4       0x80 /opt/devkitpro/libnds/lib/libfat.a(cache.o)
                0x0000000002016ea4                _FAT_cache_writeSectors
 .text._FAT_cache_flush
                0x0000000002016f24       0x40 /opt/devkitpro/libnds/lib/libfat.a(cache.o)
                0x0000000002016f24                _FAT_cache_flush
 .text._FAT_stat_r
                0x0000000002016f64       0x90 /opt/devkitpro/libnds/lib/libfat.a(fatdir.o)
                0x0000000002016f64                _FAT_stat_r
 .text._FAT_link_r
                0x0000000002016ff4        0xc /opt/devkitpro/libnds/lib/libfat.a(fatdir.o)
                0x0000000002016ff4                _FAT_link_r
 .text._FAT_unlink_r
                0x0000000002017000      0x184 /opt/devkitpro/libnds/lib/libfat.a(fatdir.o)
                0x0000000002017000                _FAT_unlink_r
 .text._FAT_chdir_r
                0x0000000002017184       0x70 /opt/devkitpro/libnds/lib/libfat.a(fatdir.o)
                0x0000000002017184                _FAT_chdir_r
 .text._FAT_rename_r
                0x00000000020171f4      0x1c4 /opt/devkitpro/libnds/lib/libfat.a(fatdir.o)
                0x00000000020171f4                _FAT_rename_r
 .text._FAT_mkdir_r
                0x00000000020173b8      0x244 /opt/devkitpro/libnds/lib/libfat.a(fatdir.o)
                0x00000000020173b8                _FAT_mkdir_r
 .text._FAT_statvfs_r
                0x00000000020175fc       0x78 /opt/devkitpro/libnds/lib/libfat.a(fatdir.o)
                0x00000000020175fc                _FAT_statvfs_r
 .text._FAT_diropen_r
                0x0000000002017674       0xb0 /opt/devkitpro/libnds/lib/libfat.a(fatdir.o)
                0x0000000002017674                _FAT_diropen_r
 .text._FAT_dirreset_r
                0x0000000002017724       0x4c /opt/devkitpro/libnds/lib/libfat.a(fatdir.o)
                0x0000000002017724                _FAT_dirreset_r
 .text._FAT_dirnext_r
                0x0000000002017770       0x7c /opt/devkitpro/libnds/lib/libfat.a(fatdir.o)
                0x0000000002017770                _FAT_dirnext_r
 .text._FAT_dirclose_r
                0x00000000020177ec       0x20 /opt/devkitpro/libnds/lib/libfat.a(fatdir.o)
                0x00000000020177ec                _FAT_dirclose_r
 .text._FAT_directory_entryGetAlias
                0x000000000201780c       0xc8 /opt/devkitpro/libnds/lib/libfat.a(directory.o)
 .text._FAT_directory_incrementDirEntryPosition
                0x00000000020178d4       0x80 /opt/devkitpro/libnds/lib/libfat.a(directory.o)
 .text._FAT_directory_mbsncasecmp
                0x0000000002017954       0xa8 /opt/devkitpro/libnds/lib/libfat.a(directory.o)
 .text._FAT_directory_ucs2tombs.constprop.0
                0x00000000020179fc       0x90 /opt/devkitpro/libnds/lib/libfat.a(directory.o)
 .text._FAT_directory_entryGetCluster
                0x0000000002017a8c       0x20 /opt/devkitpro/libnds/lib/libfat.a(directory.o)
                0x0000000002017a8c                _FAT_directory_entryGetCluster
 .text._FAT_directory_getNextEntry
                0x0000000002017aac      0x23c /opt/devkitpro/libnds/lib/libfat.a(directory.o)
                0x0000000002017aac                _FAT_directory_getNextEntry
 .text._FAT_directory_entryExists
                0x0000000002017ce8       0x80 /opt/devkitpro/libnds/lib/libfat.a(directory.o)
 .text._FAT_directory_getFirstEntry
                0x0000000002017d68       0x20 /opt/devkitpro/libnds/lib/libfat.a(directory.o)
                0x0000000002017d68                _FAT_directory_getFirstEntry
 .text._FAT_directory_getRootEntry
                0x0000000002017d88       0x60 /opt/devkitpro/libnds/lib/libfat.a(directory.o)
                0x0000000002017d88                _FAT_directory_getRootEntry
 .text._FAT_directory_entryFromPosition
                0x0000000002017de8      0x150 /opt/devkitpro/libnds/lib/libfat.a(directory.o)
                0x0000000002017de8                _FAT_directory_entryFromPosition
 .text._FAT_directory_entryFromPath
                0x0000000002017f38      0x248 /opt/devkitpro/libnds/lib/libfat.a(directory.o)
                0x0000000002017f38                _FAT_directory_entryFromPath
 .text._FAT_directory_removeEntry
                0x0000000002018180       0xd8 /opt/devkitpro/libnds/lib/libfat.a(directory.o)
                0x0000000002018180                _FAT_directory_removeEntry
 .text._FAT_directory_addEntry
                0x0000000002018258      0x808 /opt/devkitpro/libnds/lib/libfat.a(directory.o)
                0x0000000002018258                _FAT_directory_addEntry
 .text._FAT_directory_chdir
                0x0000000002018a60       0x3c /opt/devkitpro/libnds/lib/libfat.a(directory.o)
                0x0000000002018a60                _FAT_directory_chdir
 .text._FAT_directory_entryStat
                0x0000000002018a9c       0xe4 /opt/devkitpro/libnds/lib/libfat.a(directory.o)
                0x0000000002018a9c                _FAT_directory_entryStat
 .text.isValidMBR
                0x0000000002018b80       0x5c /opt/devkitpro/libnds/lib/libfat.a(partition.o)
 .text._FAT_updateFS_INFO
                0x0000000002018bdc       0x54 /opt/devkitpro/libnds/lib/libfat.a(partition.o)
 .text.FindFirstValidPartition_buf.part.0
                0x0000000002018c30      0x11c /opt/devkitpro/libnds/lib/libfat.a(partition.o)
 .text._FAT_partition_getPartitionFromPath
                0x0000000002018d4c       0x10 /opt/devkitpro/libnds/lib/libfat.a(partition.o)
                0x0000000002018d4c                _FAT_partition_getPartitionFromPath
 .text._FAT_partition_createFSinfo
                0x0000000002018d5c       0x50 /opt/devkitpro/libnds/lib/libfat.a(partition.o)
                0x0000000002018d5c                _FAT_partition_createFSinfo
 .text._FAT_partition_readFSinfo.part.0
                0x0000000002018dac       0x74 /opt/devkitpro/libnds/lib/libfat.a(partition.o)
 .text._FAT_partition_constructor_buf
                0x0000000002018e20      0x2e8 /opt/devkitpro/libnds/lib/libfat.a(partition.o)
                0x0000000002018e20                _FAT_partition_constructor_buf
 .text._FAT_partition_constructor
                0x0000000002019108       0x40 /opt/devkitpro/libnds/lib/libfat.a(partition.o)
                0x0000000002019108                _FAT_partition_constructor
 .text._FAT_partition_readFSinfo
                0x0000000002019148       0x10 /opt/devkitpro/libnds/lib/libfat.a(partition.o)
                0x0000000002019148                _FAT_partition_readFSinfo
 .text._FAT_lock_init
                0x0000000002019158        0x4 /opt/devkitpro/libnds/lib/libfat.a(lock.o)
                0x0000000002019158                _FAT_lock_init
 .text._FAT_lock
                0x000000000201915c        0x4 /opt/devkitpro/libnds/lib/libfat.a(lock.o)
                0x000000000201915c                _FAT_lock
 .text._FAT_unlock
                0x0000000002019160        0x4 /opt/devkitpro/libnds/lib/libfat.a(lock.o)
                0x0000000002019160                _FAT_unlock
 .text._FAT_filetime_getTimeFromRTC
                0x0000000002019164       0x44 /opt/devkitpro/libnds/lib/libfat.a(filetime.o)
                0x0000000002019164                _FAT_filetime_getTimeFromRTC
 .text._FAT_filetime_getDateFromRTC
                0x00000000020191a8       0x44 /opt/devkitpro/libnds/lib/libfat.a(filetime.o)
                0x00000000020191a8                _FAT_filetime_getDateFromRTC
 .text._FAT_filetime_to_time_t
                0x00000000020191ec       0x38 /opt/devkitpro/libnds/lib/libfat.a(filetime.o)
                0x00000000020191ec                _FAT_filetime_to_time_t
 .text._FAT_fat_writeFatEntry.part.0.isra.0
                0x0000000002019224      0x12c /opt/devkitpro/libnds/lib/libfat.a(file_allocation_table.o)
 .text._FAT_fat_nextCluster
                0x0000000002019350      0x108 /opt/devkitpro/libnds/lib/libfat.a(file_allocation_table.o)
                0x0000000002019350                _FAT_fat_nextCluster
 .text._FAT_fat_linkFreeCluster
                0x0000000002019458       0xac /opt/devkitpro/libnds/lib/libfat.a(file_allocation_table.o)
                0x0000000002019458                _FAT_fat_linkFreeCluster
 .text._FAT_fat_linkFreeClusterCleared
                0x0000000002019504       0x68 /opt/devkitpro/libnds/lib/libfat.a(file_allocation_table.o)
                0x0000000002019504                _FAT_fat_linkFreeClusterCleared
 .text._FAT_fat_clearLinks
                0x000000000201956c       0x7c /opt/devkitpro/libnds/lib/libfat.a(file_allocation_table.o)
                0x000000000201956c                _FAT_fat_clearLinks
 .text._FAT_fat_trimChain
                0x00000000020195e8       0x80 /opt/devkitpro/libnds/lib/libfat.a(file_allocation_table.o)
                0x00000000020195e8                _FAT_fat_trimChain
 .text._FAT_fat_lastCluster
                0x0000000002019668       0x34 /opt/devkitpro/libnds/lib/libfat.a(file_allocation_table.o)
                0x0000000002019668                _FAT_fat_lastCluster
 .text._FAT_fat_freeClusterCount
                0x000000000201969c       0x2c /opt/devkitpro/libnds/lib/libfat.a(file_allocation_table.o)
                0x000000000201969c                _FAT_fat_freeClusterCount
 .text.DynamicArrayInit
                0x00000000020196c8       0x18 /opt/devkitpro/libnds/lib/libnds9.a(dynamicArray.o)
                0x00000000020196c8                DynamicArrayInit
 .text.DynamicArrayGet
                0x00000000020196e0       0x18 /opt/devkitpro/libnds/lib/libnds9.a(dynamicArray.o)
                0x00000000020196e0                DynamicArrayGet
 .text.DynamicArraySet
                0x00000000020196f8       0x48 /opt/devkitpro/libnds/lib/libnds9.a(dynamicArray.o)
                0x00000000020196f8                DynamicArraySet
 .text.vramBlock__deallocateBlock.part.0
                0x0000000002019740      0x190 /opt/devkitpro/libnds/lib/libnds9.a(videoGL.o)
 .text.vramBlock_init
                0x00000000020198d0       0x5c /opt/devkitpro/libnds/lib/libnds9.a(videoGL.o)
                0x00000000020198d0                vramBlock_init
 .text.vramBlock__allocateBlock
                0x000000000201992c      0x178 /opt/devkitpro/libnds/lib/libnds9.a(videoGL.o)
                0x000000000201992c                vramBlock__allocateBlock
 .text.vramBlock_examineSpecial
                0x0000000002019aa4      0x238 /opt/devkitpro/libnds/lib/libnds9.a(videoGL.o)
                0x0000000002019aa4                vramBlock_examineSpecial
 .text.vramBlock_allocateSpecial
                0x0000000002019cdc       0x6c /opt/devkitpro/libnds/lib/libnds9.a(videoGL.o)
                0x0000000002019cdc                vramBlock_allocateSpecial
 .text.vramBlock_allocateBlock
                0x0000000002019d48       0x30 /opt/devkitpro/libnds/lib/libnds9.a(videoGL.o)
                0x0000000002019d48                vramBlock_allocateBlock
 .text.vramBlock_deallocateBlock
                0x0000000002019d78       0x48 /opt/devkitpro/libnds/lib/libnds9.a(videoGL.o)
                0x0000000002019d78                vramBlock_deallocateBlock
 .text.removePaletteFromTexture.part.0
                0x0000000002019dc0       0x68 /opt/devkitpro/libnds/lib/libnds9.a(videoGL.o)
 .text.glInit_C
                0x0000000002019e28      0x1cc /opt/devkitpro/libnds/lib/libnds9.a(videoGL.o)
                0x0000000002019e28                glInit_C
 .text.glGenTextures
                0x0000000002019ff4       0x80 /opt/devkitpro/libnds/lib/libnds9.a(videoGL.o)
                0x0000000002019ff4                glGenTextures
 .text.glDeleteTextures
                0x000000000201a074       0xe4 /opt/devkitpro/libnds/lib/libnds9.a(videoGL.o)
                0x000000000201a074                glDeleteTextures
 .text.vramGetBank
                0x000000000201a158       0xb8 /opt/devkitpro/libnds/lib/libnds9.a(videoGL.o)
                0x000000000201a158                vramGetBank
 .text.glBindTexture
                0x000000000201a210       0x60 /opt/devkitpro/libnds/lib/libnds9.a(videoGL.o)
                0x000000000201a210                glBindTexture
 .text.glTexImage2D
                0x000000000201a270      0x40c /opt/devkitpro/libnds/lib/libnds9.a(videoGL.o)
                0x000000000201a270                glTexImage2D
 .text.scanKeys
                0x000000000201a67c       0x8c /opt/devkitpro/libnds/lib/libnds9.a(keys.o)
                0x000000000201a67c                scanKeys
 .text.keysHeld
                0x000000000201a708        0xc /opt/devkitpro/libnds/lib/libnds9.a(keys.o)
                0x000000000201a708                keysHeld
 .text.dldiGetInternal
                0x000000000201a714       0x34 /opt/devkitpro/libnds/lib/libnds9.a(dldi.o)
                0x000000000201a714                dldiGetInternal
 .text.get_io_dsisd
                0x000000000201a748       0x24 /opt/devkitpro/libnds/lib/libnds9.a(dldi.o)
                0x000000000201a748                get_io_dsisd
 .text.__syscall_gettod_r
                0x000000000201a76c       0x28 /opt/devkitpro/libnds/lib/libnds9.a(initSystem.o)
                0x000000000201a76c                __syscall_gettod_r
 .text.__syscall_exit
                0x000000000201a794        0x8 /opt/devkitpro/libnds/lib/libnds9.a(initSystem.o)
                0x000000000201a794                __syscall_exit
 .text.initSystem
                0x000000000201a79c      0x180 /opt/devkitpro/libnds/lib/libnds9.a(initSystem.o)
                0x000000000201a79c                initSystem
 .text.irqDummy
                0x000000000201a91c        0x4 /opt/devkitpro/libnds/lib/libnds9.a(interrupts.o)
                0x000000000201a91c                irqDummy
 .text.irqSet   0x000000000201a920       0x6c /opt/devkitpro/libnds/lib/libnds9.a(interrupts.o)
                0x000000000201a920                irqSet
 .text.irqInit  0x000000000201a98c       0x50 /opt/devkitpro/libnds/lib/libnds9.a(interrupts.o)
                0x000000000201a98c                irqInit
 .text.irqEnable
                0x000000000201a9dc       0x64 /opt/devkitpro/libnds/lib/libnds9.a(interrupts.o)
                0x000000000201a9dc                irqEnable
 .text.systemErrorExit
                0x000000000201aa40        0x4 /opt/devkitpro/libnds/lib/libnds9.a(libnds_exit.arm.o)
                0x000000000201aa40                systemErrorExit
 .text.__libnds_exit
                0x000000000201aa44       0x5c /opt/devkitpro/libnds/lib/libnds9.a(libnds_exit.arm.o)
                0x000000000201aa44                __libnds_exit
 .text.cardPolledTransfer
                0x000000000201aaa0       0x54 /opt/devkitpro/libnds/lib/libnds9.a(card.o)
                0x000000000201aaa0                cardPolledTransfer
 .text.cardParamCommand
                0x000000000201aaf4       0x34 /opt/devkitpro/libnds/lib/libnds9.a(card.o)
                0x000000000201aaf4                cardParamCommand
 .text.fifo_queueBlock
                0x000000000201ab28       0x44 /opt/devkitpro/libnds/lib/libnds9.a(fifosystem.o)
 .text.fifo_waitBlock
                0x000000000201ab6c       0x80 /opt/devkitpro/libnds/lib/libnds9.a(fifosystem.o)
 .text.fifoInternalSend.part.0
                0x000000000201abec       0xd4 /opt/devkitpro/libnds/lib/libnds9.a(fifosystem.o)
 .text.fifoInternalSendInterrupt
                0x000000000201acc0       0xb0 /opt/devkitpro/libnds/lib/libnds9.a(fifosystem.o)
 .text.fifoSetValue32Handler
                0x000000000201ad70       0xd4 /opt/devkitpro/libnds/lib/libnds9.a(fifosystem.o)
                0x000000000201ad70                fifoSetValue32Handler
 .text.fifoSendValue32
                0x000000000201ae44       0x4c /opt/devkitpro/libnds/lib/libnds9.a(fifosystem.o)
                0x000000000201ae44                fifoSendValue32
 .text.fifoSendDatamsg
                0x000000000201ae90       0x90 /opt/devkitpro/libnds/lib/libnds9.a(fifosystem.o)
                0x000000000201ae90                fifoSendDatamsg
 .text.fifoGetValue32
                0x000000000201af20       0x70 /opt/devkitpro/libnds/lib/libnds9.a(fifosystem.o)
                0x000000000201af20                fifoGetValue32
 .text.fifoGetDatamsg
                0x000000000201af90       0xf4 /opt/devkitpro/libnds/lib/libnds9.a(fifosystem.o)
                0x000000000201af90                fifoGetDatamsg
 .text.fifoInternalRecvInterrupt
                0x000000000201b084      0x37c /opt/devkitpro/libnds/lib/libnds9.a(fifosystem.o)
 .text.fifoSetDatamsgHandler
                0x000000000201b400       0x9c /opt/devkitpro/libnds/lib/libnds9.a(fifosystem.o)
                0x000000000201b400                fifoSetDatamsgHandler
 .text.fifoCheckValue32
                0x000000000201b49c       0x24 /opt/devkitpro/libnds/lib/libnds9.a(fifosystem.o)
                0x000000000201b49c                fifoCheckValue32
 .text.fifoInit
                0x000000000201b4c0      0x108 /opt/devkitpro/libnds/lib/libnds9.a(fifosystem.o)
                0x000000000201b4c0                fifoInit
 .text.__libnds_mpu_setup
                0x000000000201b5c8      0x174 /opt/devkitpro/libnds/lib/libnds9.a(mpu_setup.o)
                0x000000000201b5c8                __libnds_mpu_setup
 .text.memUncached
                0x000000000201b73c       0x20 /opt/devkitpro/libnds/lib/libnds9.a(mpu_setup.o)
                0x000000000201b73c                memUncached
 .text.swiWaitForVBlank
                0x000000000201b75c        0x8 /opt/devkitpro/libnds/lib/libnds9.a(IntrWait.o)
                0x000000000201b75c                swiWaitForVBlank
 .text.swiIntrWait
                0x000000000201b764       0x70 /opt/devkitpro/libnds/lib/libnds9.a(IntrWait.o)
                0x000000000201b764                swiIntrWait
 .text.setCpuClock
                0x000000000201b7d4       0x50 /opt/devkitpro/libnds/lib/libnds9.a(cpu_clock.o)
                0x000000000201b7d4                setCpuClock
 .text.swiDelay
                0x000000000201b824        0x4 /opt/devkitpro/libnds/lib/libnds9.a(biosCalls.o)
                0x000000000201b824                swiDelay
 .text.swiSoftReset
                0x000000000201b828       0x2c /opt/devkitpro/libnds/lib/libnds9.a(swiSoftReset.o)
                0x000000000201b828                swiSoftReset
 .text.vramRestorePrimaryBanks
                0x000000000201b854        0xc /opt/devkitpro/libnds/lib/libnds9.a(video.o)
                0x000000000201b854                vramRestorePrimaryBanks
 .text.vramDefault
                0x000000000201b860       0xd0 /opt/devkitpro/libnds/lib/libnds9.a(video.o)
                0x000000000201b860                vramDefault
 .text.systemValueHandler
                0x000000000201b930       0x48 /opt/devkitpro/libnds/lib/libnds9.a(system.o)
                0x000000000201b930                systemValueHandler
 .text.systemMsgHandler
                0x000000000201b978       0x60 /opt/devkitpro/libnds/lib/libnds9.a(system.o)
                0x000000000201b978                systemMsgHandler
 .text.powerOn  0x000000000201b9d8       0x2c /opt/devkitpro/libnds/lib/libnds9.a(system.o)
                0x000000000201b9d8                powerOn
 .text.DC_FlushRange
                0x000000000201ba04       0x24 /opt/devkitpro/libnds/lib/libnds9.a(dcache.o)
                0x000000000201ba04                DC_FlushRange
 .text.__muldi3
                0x000000000201ba28       0x18 /opt/devkitpro/devkitARM/bin/../lib/gcc/arm-none-eabi/12.2.0/libgcc.a(_muldi3.o)
                0x000000000201ba28                __aeabi_lmul
                0x000000000201ba28                __muldi3
 .text.__udivmoddi4
                0x000000000201ba40      0x128 /opt/devkitpro/devkitARM/bin/../lib/gcc/arm-none-eabi/12.2.0/libgcc.a(_udivmoddi4.o)
                0x000000000201ba40                __udivmoddi4
 .text.__assert_func
                0x000000000201bb68       0x5c /opt/devkitpro/devkitARM/bin/../lib/gcc/arm-none-eabi/12.2.0/../../../../arm-none-eabi/lib/libg.a(lib_a-assert.o)
                0x000000000201bb68                __assert_func
 .text.atoi     0x000000000201bbc4       0x18 /opt/devkitpro/devkitARM/bin/../lib/gcc/arm-none-eabi/12.2.0/../../../../arm-none-eabi/lib/libg.a(lib_a-atoi.o)
                0x000000000201bbc4                atoi
 .text.calloc   0x000000000201bbdc       0x24 /opt/devkitpro/devkitARM/bin/../lib/gcc/arm-none-eabi/12.2.0/../../../../arm-none-eabi/lib/libg.a(lib_a-calloc.o)
                0x000000000201bbdc                calloc
 .text._calloc_r
                0x000000000201bc00       0xd0 /opt/devkitpro/devkitARM/bin/../lib/gcc/arm-none-eabi/12.2.0/../../../../arm-none-eabi/lib/libg.a(lib_a-callocr.o)
                0x000000000201bc00                _calloc_r
 .text.__errno  0x000000000201bcd0       0x10 /opt/devkitpro/devkitARM/bin/../lib/gcc/arm-none-eabi/12.2.0/../../../../arm-none-eabi/lib/libg.a(lib_a-errno.o)
                0x000000000201bcd0                __errno
 .text.exit     0x000000000201bce0       0x34 /opt/devkitpro/devkitARM/bin/../lib/gcc/arm-none-eabi/12.2.0/../../../../arm-none-eabi/lib/libg.a(lib_a-exit.o)
                0x000000000201bce0                exit
 .text._fclose_r
                0x000000000201bd14      0x164 /opt/devkitpro/devkitARM/bin/../lib/gcc/arm-none-eabi/12.2.0/../../../../arm-none-eabi/lib/libg.a(lib_a-fclose.o)
                0x000000000201bd14                _fclose_r
 .text.fclose   0x000000000201be78       0x18 /opt/devkitpro/devkitARM/bin/../lib/gcc/arm-none-eabi/12.2.0/../../../../arm-none-eabi/lib/libg.a(lib_a-fclose.o)
                0x000000000201be78                fclose
 .text.__sflush_r
                0x000000000201be90      0x250 /opt/devkitpro/devkitARM/bin/../lib/gcc/arm-none-eabi/12.2.0/../../../../arm-none-eabi/lib/libg.a(lib_a-fflush.o)
                0x000000000201be90                __sflush_r
 .text._fflush_r
                0x000000000201c0e0       0x9c /opt/devkitpro/devkitARM/bin/../lib/gcc/arm-none-eabi/12.2.0/../../../../arm-none-eabi/lib/libg.a(lib_a-fflush.o)
                0x000000000201c0e0                _fflush_r
 .text.fflush   0x000000000201c17c       0x3c /opt/devkitpro/devkitARM/bin/../lib/gcc/arm-none-eabi/12.2.0/../../../../arm-none-eabi/lib/libg.a(lib_a-fflush.o)
                0x000000000201c17c                fflush
 .text._cleanup_r
                0x000000000201c1b8       0x18 /opt/devkitpro/devkitARM/bin/../lib/gcc/arm-none-eabi/12.2.0/../../../../arm-none-eabi/lib/libg.a(lib_a-findfp.o)
                0x000000000201c1b8                _cleanup_r
 .text.__sinit  0x000000000201c1d0      0x18c /opt/devkitpro/devkitARM/bin/../lib/gcc/arm-none-eabi/12.2.0/../../../../arm-none-eabi/lib/libg.a(lib_a-findfp.o)
                0x000000000201c1d0                __sinit
 .text.__sfp    0x000000000201c35c      0x138 /opt/devkitpro/devkitARM/bin/../lib/gcc/arm-none-eabi/12.2.0/../../../../arm-none-eabi/lib/libg.a(lib_a-findfp.o)
                0x000000000201c35c                __sfp
 .text.__sfp_lock_acquire
                0x000000000201c494       0x18 /opt/devkitpro/devkitARM/bin/../lib/gcc/arm-none-eabi/12.2.0/../../../../arm-none-eabi/lib/libg.a(lib_a-findfp.o)
                0x000000000201c494                __sfp_lock_acquire
 .text.__sfp_lock_release
                0x000000000201c4ac       0x18 /opt/devkitpro/devkitARM/bin/../lib/gcc/arm-none-eabi/12.2.0/../../../../arm-none-eabi/lib/libg.a(lib_a-findfp.o)
                0x000000000201c4ac                __sfp_lock_release
 .text.fiprintf
                0x000000000201c4c4       0x3c /opt/devkitpro/devkitARM/bin/../lib/gcc/arm-none-eabi/12.2.0/../../../../arm-none-eabi/lib/libg.a(lib_a-fiprintf.o)
                0x000000000201c4c4                fiprintf
 .text._fopen_r
                0x000000000201c500      0x140 /opt/devkitpro/devkitARM/bin/../lib/gcc/arm-none-eabi/12.2.0/../../../../arm-none-eabi/lib/libg.a(lib_a-fopen.o)
                0x000000000201c500                _fopen_r
 .text.fopen    0x000000000201c640       0x20 /opt/devkitpro/devkitARM/bin/../lib/gcc/arm-none-eabi/12.2.0/../../../../arm-none-eabi/lib/libg.a(lib_a-fopen.o)
                0x000000000201c640                fopen
 .text._fread_r
                0x000000000201c660      0x2d8 /opt/devkitpro/devkitARM/bin/../lib/gcc/arm-none-eabi/12.2.0/../../../../arm-none-eabi/lib/libg.a(lib_a-fread.o)
                0x000000000201c660                _fread_r
 .text.fread    0x000000000201c938       0x3c /opt/devkitpro/devkitARM/bin/../lib/gcc/arm-none-eabi/12.2.0/../../../../arm-none-eabi/lib/libg.a(lib_a-fread.o)
                0x000000000201c938                fread
 .text._malloc_trim_r
                0x000000000201c974      0x100 /opt/devkitpro/devkitARM/bin/../lib/gcc/arm-none-eabi/12.2.0/../../../../arm-none-eabi/lib/libg.a(lib_a-freer.o)
                0x000000000201c974                _malloc_trim_r
 .text._free_r  0x000000000201ca74      0x2e8 /opt/devkitpro/devkitARM/bin/../lib/gcc/arm-none-eabi/12.2.0/../../../../arm-none-eabi/lib/libg.a(lib_a-freer.o)
                0x000000000201ca74                _free_r
 .text._fseek_r
                0x000000000201cd5c       0x20 /opt/devkitpro/devkitARM/bin/../lib/gcc/arm-none-eabi/12.2.0/../../../../arm-none-eabi/lib/libg.a(lib_a-fseek.o)
                0x000000000201cd5c                _fseek_r
 .text.fseek    0x000000000201cd7c       0x38 /opt/devkitpro/devkitARM/bin/../lib/gcc/arm-none-eabi/12.2.0/../../../../arm-none-eabi/lib/libg.a(lib_a-fseek.o)
                0x000000000201cd7c                fseek
 .text._fseeko_r
                0x000000000201cdb4      0x5a0 /opt/devkitpro/devkitARM/bin/../lib/gcc/arm-none-eabi/12.2.0/../../../../arm-none-eabi/lib/libg.a(lib_a-fseeko.o)
                0x000000000201cdb4                _fseeko_r
 .text._fwalk   0x000000000201d354       0x70 /opt/devkitpro/devkitARM/bin/../lib/gcc/arm-none-eabi/12.2.0/../../../../arm-none-eabi/lib/libg.a(lib_a-fwalk.o)
                0x000000000201d354                _fwalk
 .text._fwalk_reent
                0x000000000201d3c4       0x78 /opt/devkitpro/devkitARM/bin/../lib/gcc/arm-none-eabi/12.2.0/../../../../arm-none-eabi/lib/libg.a(lib_a-fwalk.o)
                0x000000000201d3c4                _fwalk_reent
 .text.__libc_init_array
                0x000000000201d43c       0x90 /opt/devkitpro/devkitARM/bin/../lib/gcc/arm-none-eabi/12.2.0/../../../../arm-none-eabi/lib/libg.a(lib_a-init.o)
                0x000000000201d43c                __libc_init_array
 .text.localtime_r
                0x000000000201d4cc      0x370 /opt/devkitpro/devkitARM/bin/../lib/gcc/arm-none-eabi/12.2.0/../../../../arm-none-eabi/lib/libg.a(lib_a-lcltime_r.o)
                0x000000000201d4cc                localtime_r
 .text.__locale_mb_cur_max
                0x000000000201d83c       0x10 /opt/devkitpro/devkitARM/bin/../lib/gcc/arm-none-eabi/12.2.0/../../../../arm-none-eabi/lib/libg.a(lib_a-locale.o)
                0x000000000201d83c                __locale_mb_cur_max
 .text.__smakebuf_r
                0x000000000201d84c      0x144 /opt/devkitpro/devkitARM/bin/../lib/gcc/arm-none-eabi/12.2.0/../../../../arm-none-eabi/lib/libg.a(lib_a-makebuf.o)
                0x000000000201d84c                __smakebuf_r
 .text.malloc   0x000000000201d990       0x1c /opt/devkitpro/devkitARM/bin/../lib/gcc/arm-none-eabi/12.2.0/../../../../arm-none-eabi/lib/libg.a(lib_a-malloc.o)
                0x000000000201d990                malloc
 .text.free     0x000000000201d9ac       0x1c /opt/devkitpro/devkitARM/bin/../lib/gcc/arm-none-eabi/12.2.0/../../../../arm-none-eabi/lib/libg.a(lib_a-malloc.o)
                0x000000000201d9ac                free
 .text._malloc_r
                0x000000000201d9c8      0x7f0 /opt/devkitpro/devkitARM/bin/../lib/gcc/arm-none-eabi/12.2.0/../../../../arm-none-eabi/lib/libg.a(lib_a-mallocr.o)
                0x000000000201d9c8                _malloc_r
 .text._mbrtowc_r
                0x000000000201e1b8       0x70 /opt/devkitpro/devkitARM/bin/../lib/gcc/arm-none-eabi/12.2.0/../../../../arm-none-eabi/lib/libg.a(lib_a-mbrtowc.o)
                0x000000000201e1b8                _mbrtowc_r
 .text.mbrtowc  0x000000000201e228       0x88 /opt/devkitpro/devkitARM/bin/../lib/gcc/arm-none-eabi/12.2.0/../../../../arm-none-eabi/lib/libg.a(lib_a-mbrtowc.o)
                0x000000000201e228                mbrtowc
 .text.mbsrtowcs
                0x000000000201e2b0       0x40 /opt/devkitpro/devkitARM/bin/../lib/gcc/arm-none-eabi/12.2.0/../../../../arm-none-eabi/lib/libg.a(lib_a-mbsrtowcs.o)
                0x000000000201e2b0                mbsrtowcs
 .text.__utf8_mbtowc
                0x000000000201e2f0      0x308 /opt/devkitpro/devkitARM/bin/../lib/gcc/arm-none-eabi/12.2.0/../../../../arm-none-eabi/lib/libg.a(lib_a-mbtowc_r.o)
                0x000000000201e2f0                __utf8_mbtowc
 .text.memcmp   0x000000000201e5f8       0xbc /opt/devkitpro/devkitARM/bin/../lib/gcc/arm-none-eabi/12.2.0/../../../../arm-none-eabi/lib/libg.a(lib_a-memcmp.o)
                0x000000000201e5f8                memcmp
 .text.memcpy   0x000000000201e6b4      0x114 /opt/devkitpro/devkitARM/bin/../lib/gcc/arm-none-eabi/12.2.0/../../../../arm-none-eabi/lib/libg.a(lib_a-memcpy-stub.o)
                0x000000000201e6b4                memcpy
 .text.memmove  0x000000000201e7c8      0x154 /opt/devkitpro/devkitARM/bin/../lib/gcc/arm-none-eabi/12.2.0/../../../../arm-none-eabi/lib/libg.a(lib_a-memmove.o)
                0x000000000201e7c8                memmove
 .text.memset   0x000000000201e91c       0xfc /opt/devkitpro/devkitARM/bin/../lib/gcc/arm-none-eabi/12.2.0/../../../../arm-none-eabi/lib/libg.a(lib_a-memset.o)
                0x000000000201e91c                memset
 .text.validate_structure
                0x000000000201ea18      0x2e0 /opt/devkitpro/devkitARM/bin/../lib/gcc/arm-none-eabi/12.2.0/../../../../arm-none-eabi/lib/libg.a(lib_a-mktime.o)
 .text.mktime   0x000000000201ecf8      0x4c0 /opt/devkitpro/devkitARM/bin/../lib/gcc/arm-none-eabi/12.2.0/../../../../arm-none-eabi/lib/libg.a(lib_a-mktime.o)
                0x000000000201ecf8                mktime
 .text.__malloc_lock
                0x000000000201f1b8       0x18 /opt/devkitpro/devkitARM/bin/../lib/gcc/arm-none-eabi/12.2.0/../../../../arm-none-eabi/lib/libg.a(lib_a-mlock.o)
                0x000000000201f1b8                __malloc_lock
 .text.__malloc_unlock
                0x000000000201f1d0       0x18 /opt/devkitpro/devkitARM/bin/../lib/gcc/arm-none-eabi/12.2.0/../../../../arm-none-eabi/lib/libg.a(lib_a-mlock.o)
                0x000000000201f1d0                __malloc_unlock
 .text.printf   0x000000000201f1e8       0x34 /opt/devkitpro/devkitARM/bin/../lib/gcc/arm-none-eabi/12.2.0/../../../../arm-none-eabi/lib/libg.a(lib_a-printf.o)
                0x000000000201f1e8                printf
 .text.realloc  0x000000000201f21c       0x24 /opt/devkitpro/devkitARM/bin/../lib/gcc/arm-none-eabi/12.2.0/../../../../arm-none-eabi/lib/libg.a(lib_a-realloc.o)
                0x000000000201f21c                realloc
 .text._realloc_r
                0x000000000201f240      0x4b8 /opt/devkitpro/devkitARM/bin/../lib/gcc/arm-none-eabi/12.2.0/../../../../arm-none-eabi/lib/libg.a(lib_a-reallocr.o)
                0x000000000201f240                _realloc_r
 .text.lflush   0x000000000201f6f8       0x28 /opt/devkitpro/devkitARM/bin/../lib/gcc/arm-none-eabi/12.2.0/../../../../arm-none-eabi/lib/libg.a(lib_a-refill.o)
 .text.__srefill_r
                0x000000000201f720      0x198 /opt/devkitpro/devkitARM/bin/../lib/gcc/arm-none-eabi/12.2.0/../../../../arm-none-eabi/lib/libg.a(lib_a-refill.o)
                0x000000000201f720                __srefill_r
 .text.sprintf  0x000000000201f8b8       0x64 /opt/devkitpro/devkitARM/bin/../lib/gcc/arm-none-eabi/12.2.0/../../../../arm-none-eabi/lib/libg.a(lib_a-sprintf.o)
                0x000000000201f8b8                sprintf
 .text.__sread  0x000000000201f91c       0x4c /opt/devkitpro/devkitARM/bin/../lib/gcc/arm-none-eabi/12.2.0/../../../../arm-none-eabi/lib/libg.a(lib_a-stdio.o)
                0x000000000201f91c                __sread
 .text.__seofread
                0x000000000201f968        0x8 /opt/devkitpro/devkitARM/bin/../lib/gcc/arm-none-eabi/12.2.0/../../../../arm-none-eabi/lib/libg.a(lib_a-stdio.o)
                0x000000000201f968                __seofread
 .text.__swrite
                0x000000000201f970       0x6c /opt/devkitpro/devkitARM/bin/../lib/gcc/arm-none-eabi/12.2.0/../../../../arm-none-eabi/lib/libg.a(lib_a-stdio.o)
                0x000000000201f970                __swrite
 .text.__sseek  0x000000000201f9dc       0x48 /opt/devkitpro/devkitARM/bin/../lib/gcc/arm-none-eabi/12.2.0/../../../../arm-none-eabi/lib/libg.a(lib_a-stdio.o)
                0x000000000201f9dc                __sseek
 .text.__sclose
                0x000000000201fa24       0x14 /opt/devkitpro/devkitARM/bin/../lib/gcc/arm-none-eabi/12.2.0/../../../../arm-none-eabi/lib/libg.a(lib_a-stdio.o)
                0x000000000201fa24                __sclose
 .text.stpcpy   0x000000000201fa38       0x74 /opt/devkitpro/devkitARM/bin/../lib/gcc/arm-none-eabi/12.2.0/../../../../arm-none-eabi/lib/libg.a(lib_a-stpcpy.o)
                0x000000000201fa38                stpcpy
 .text.strcasecmp
                0x000000000201faac       0x70 /opt/devkitpro/devkitARM/bin/../lib/gcc/arm-none-eabi/12.2.0/../../../../arm-none-eabi/lib/libg.a(lib_a-strcasecmp.o)
                0x000000000201faac                strcasecmp
 .text.strchr   0x000000000201fb1c      0x13c /opt/devkitpro/devkitARM/bin/../lib/gcc/arm-none-eabi/12.2.0/../../../../arm-none-eabi/lib/libg.a(lib_a-strchr.o)
                0x000000000201fb1c                strchr
 .text.strcpy   0x000000000201fc58       0xf0 /opt/devkitpro/devkitARM/bin/../lib/gcc/arm-none-eabi/12.2.0/../../../../arm-none-eabi/lib/libg.a(lib_a-strcpy.o)
                0x000000000201fc58                strcpy
 .text.strdup   0x000000000201fd48       0x1c /opt/devkitpro/devkitARM/bin/../lib/gcc/arm-none-eabi/12.2.0/../../../../arm-none-eabi/lib/libg.a(lib_a-strdup.o)
                0x000000000201fd48                strdup
 .text._strdup_r
                0x000000000201fd64       0x44 /opt/devkitpro/devkitARM/bin/../lib/gcc/arm-none-eabi/12.2.0/../../../../arm-none-eabi/lib/libg.a(lib_a-strdup_r.o)
                0x000000000201fd64                _strdup_r
 .text.strlen   0x000000000201fda8       0x60 /opt/devkitpro/devkitARM/bin/../lib/gcc/arm-none-eabi/12.2.0/../../../../arm-none-eabi/lib/libg.a(lib_a-strlen-stub.o)
                0x000000000201fda8                strlen
 .text.strncasecmp
                0x000000000201fe08       0x8c /opt/devkitpro/devkitARM/bin/../lib/gcc/arm-none-eabi/12.2.0/../../../../arm-none-eabi/lib/libg.a(lib_a-strncasecmp.o)
                0x000000000201fe08                strncasecmp
 .text.strncmp  0x000000000201fe94       0xec /opt/devkitpro/devkitARM/bin/../lib/gcc/arm-none-eabi/12.2.0/../../../../arm-none-eabi/lib/libg.a(lib_a-strncmp.o)
                0x000000000201fe94                strncmp
 .text.strncpy  0x000000000201ff80       0xd0 /opt/devkitpro/devkitARM/bin/../lib/gcc/arm-none-eabi/12.2.0/../../../../arm-none-eabi/lib/libg.a(lib_a-strncpy.o)
                0x000000000201ff80                strncpy
 .text.strnlen  0x0000000002020050       0x48 /opt/devkitpro/devkitARM/bin/../lib/gcc/arm-none-eabi/12.2.0/../../../../arm-none-eabi/lib/libg.a(lib_a-strnlen.o)
                0x0000000002020050                strnlen
 .text.strpbrk  0x0000000002020098       0x7c /opt/devkitpro/devkitARM/bin/../lib/gcc/arm-none-eabi/12.2.0/../../../../arm-none-eabi/lib/libg.a(lib_a-strpbrk.o)
                0x0000000002020098                strpbrk
 .text.strrchr  0x0000000002020114       0x58 /opt/devkitpro/devkitARM/bin/../lib/gcc/arm-none-eabi/12.2.0/../../../../arm-none-eabi/lib/libg.a(lib_a-strrchr.o)
                0x0000000002020114                strrchr
 .text.strtok   0x000000000202016c       0x30 /opt/devkitpro/devkitARM/bin/../lib/gcc/arm-none-eabi/12.2.0/../../../../arm-none-eabi/lib/libg.a(lib_a-strtok.o)
                0x000000000202016c                strtok
 .text.__strtok_r
                0x000000000202019c       0xbc /opt/devkitpro/devkitARM/bin/../lib/gcc/arm-none-eabi/12.2.0/../../../../arm-none-eabi/lib/libg.a(lib_a-strtok_r.o)
                0x000000000202019c                __strtok_r
 .text._strtol_l.part.0
                0x0000000002020258      0x1a8 /opt/devkitpro/devkitARM/bin/../lib/gcc/arm-none-eabi/12.2.0/../../../../arm-none-eabi/lib/libg.a(lib_a-strtol.o)
 .text._strtol_r
                0x0000000002020400       0x3c /opt/devkitpro/devkitARM/bin/../lib/gcc/arm-none-eabi/12.2.0/../../../../arm-none-eabi/lib/libg.a(lib_a-strtol.o)
                0x0000000002020400                _strtol_r
 .text.strtol   0x000000000202043c       0x5c /opt/devkitpro/devkitARM/bin/../lib/gcc/arm-none-eabi/12.2.0/../../../../arm-none-eabi/lib/libg.a(lib_a-strtol.o)
                0x000000000202043c                strtol
 .text.get_arg  0x0000000002020498      0x674 /opt/devkitpro/devkitARM/bin/../lib/gcc/arm-none-eabi/12.2.0/../../../../arm-none-eabi/lib/libg.a(lib_a-svfprintf.o)
 .text._svfprintf_r
                0x0000000002020b0c     0x3630 /opt/devkitpro/devkitARM/bin/../lib/gcc/arm-none-eabi/12.2.0/../../../../arm-none-eabi/lib/libg.a(lib_a-svfprintf.o)
                0x0000000002020b0c                _svfprintf_r
 .text.lseek    0x000000000202413c       0x3c /opt/devkitpro/devkitARM/bin/../lib/gcc/arm-none-eabi/12.2.0/../../../../arm-none-eabi/lib/libg.a(lib_a-syslseek.o)
                0x000000000202413c                lseek
 .text.open     0x0000000002024178       0x40 /opt/devkitpro/devkitARM/bin/../lib/gcc/arm-none-eabi/12.2.0/../../../../arm-none-eabi/lib/libg.a(lib_a-sysopen.o)
                0x0000000002024178                open
 .text.read     0x00000000020241b8       0x2c /opt/devkitpro/devkitARM/bin/../lib/gcc/arm-none-eabi/12.2.0/../../../../arm-none-eabi/lib/libg.a(lib_a-sysread.o)
                0x00000000020241b8                read
 .text.time     0x00000000020241e4       0x40 /opt/devkitpro/devkitARM/bin/../lib/gcc/arm-none-eabi/12.2.0/../../../../arm-none-eabi/lib/libg.a(lib_a-time.o)
                0x00000000020241e4                time
 .text.towlower
                0x0000000002024224       0x14 /opt/devkitpro/devkitARM/bin/../lib/gcc/arm-none-eabi/12.2.0/../../../../arm-none-eabi/lib/libg.a(lib_a-towlower.o)
                0x0000000002024224                towlower
 .text.towupper
                0x0000000002024238       0x14 /opt/devkitpro/devkitARM/bin/../lib/gcc/arm-none-eabi/12.2.0/../../../../arm-none-eabi/lib/libg.a(lib_a-towupper.o)
                0x0000000002024238                towupper
 .text.__tzcalc_limits
                0x000000000202424c      0x254 /opt/devkitpro/devkitARM/bin/../lib/gcc/arm-none-eabi/12.2.0/../../../../arm-none-eabi/lib/libg.a(lib_a-tzcalc_limits.o)
                0x000000000202424c                __tzcalc_limits
 .text.__tz_lock
                0x00000000020244a0       0x18 /opt/devkitpro/devkitARM/bin/../lib/gcc/arm-none-eabi/12.2.0/../../../../arm-none-eabi/lib/libg.a(lib_a-tzlock.o)
                0x00000000020244a0                __tz_lock
 .text.__tz_unlock
                0x00000000020244b8       0x18 /opt/devkitpro/devkitARM/bin/../lib/gcc/arm-none-eabi/12.2.0/../../../../arm-none-eabi/lib/libg.a(lib_a-tzlock.o)
                0x00000000020244b8                __tz_unlock
 .text._tzset_unlocked
                0x00000000020244d0       0x14 /opt/devkitpro/devkitARM/bin/../lib/gcc/arm-none-eabi/12.2.0/../../../../arm-none-eabi/lib/libg.a(lib_a-tzset.o)
                0x00000000020244d0                _tzset_unlocked
 .text._tzset_unlocked_r
                0x00000000020244e4      0x47c /opt/devkitpro/devkitARM/bin/../lib/gcc/arm-none-eabi/12.2.0/../../../../arm-none-eabi/lib/libg.a(lib_a-tzset_r.o)
                0x00000000020244e4                _tzset_unlocked_r
 .text.get_arg  0x0000000002024960      0x674 /opt/devkitpro/devkitARM/bin/../lib/gcc/arm-none-eabi/12.2.0/../../../../arm-none-eabi/lib/libg.a(lib_a-vfiprintf.o)
 .text.__sprint_r
                0x0000000002024fd4       0x34 /opt/devkitpro/devkitARM/bin/../lib/gcc/arm-none-eabi/12.2.0/../../../../arm-none-eabi/lib/libg.a(lib_a-vfiprintf.o)
                0x0000000002024fd4                __sprint_r
 .text._vfiprintf_r
                0x0000000002025008     0x2320 /opt/devkitpro/devkitARM/bin/../lib/gcc/arm-none-eabi/12.2.0/../../../../arm-none-eabi/lib/libg.a(lib_a-vfiprintf.o)
                0x0000000002025008                _vfiprintf_r
 .text.__sbprintf
                0x0000000002027328       0xd4 /opt/devkitpro/devkitARM/bin/../lib/gcc/arm-none-eabi/12.2.0/../../../../arm-none-eabi/lib/libg.a(lib_a-vfiprintf.o)
 .text.get_arg  0x00000000020273fc      0x674 /opt/devkitpro/devkitARM/bin/../lib/gcc/arm-none-eabi/12.2.0/../../../../arm-none-eabi/lib/libg.a(lib_a-vfprintf.o)
 .text._vfprintf_r
                0x0000000002027a70     0x370c /opt/devkitpro/devkitARM/bin/../lib/gcc/arm-none-eabi/12.2.0/../../../../arm-none-eabi/lib/libg.a(lib_a-vfprintf.o)
                0x0000000002027a70                _vfprintf_r
 .text.__sbprintf
                0x000000000202b17c       0xd4 /opt/devkitpro/devkitARM/bin/../lib/gcc/arm-none-eabi/12.2.0/../../../../arm-none-eabi/lib/libg.a(lib_a-vfprintf.o)
 .text._wcrtomb_r
                0x000000000202b250       0x5c /opt/devkitpro/devkitARM/bin/../lib/gcc/arm-none-eabi/12.2.0/../../../../arm-none-eabi/lib/libg.a(lib_a-wcrtomb.o)
                0x000000000202b250                _wcrtomb_r
 .text.wcrtomb  0x000000000202b2ac       0x78 /opt/devkitpro/devkitARM/bin/../lib/gcc/arm-none-eabi/12.2.0/../../../../arm-none-eabi/lib/libg.a(lib_a-wcrtomb.o)
                0x000000000202b2ac                wcrtomb
 .text._wcsrtombs_r
                0x000000000202b324       0x2c /opt/devkitpro/devkitARM/bin/../lib/gcc/arm-none-eabi/12.2.0/../../../../arm-none-eabi/lib/libg.a(lib_a-wcsrtombs.o)
                0x000000000202b324                _wcsrtombs_r
 .text.wctob    0x000000000202b350       0x70 /opt/devkitpro/devkitARM/bin/../lib/gcc/arm-none-eabi/12.2.0/../../../../arm-none-eabi/lib/libg.a(lib_a-wctob.o)
                0x000000000202b350                wctob
 .text.__utf8_wctomb
                0x000000000202b3c0       0xf4 /opt/devkitpro/devkitARM/bin/../lib/gcc/arm-none-eabi/12.2.0/../../../../arm-none-eabi/lib/libg.a(lib_a-wctomb_r.o)
                0x000000000202b3c0                __utf8_wctomb
 .text.__swsetup_r
                0x000000000202b4b4      0x148 /opt/devkitpro/devkitARM/bin/../lib/gcc/arm-none-eabi/12.2.0/../../../../arm-none-eabi/lib/libg.a(lib_a-wsetup.o)
                0x000000000202b4b4                __swsetup_r
 .text.abort    0x000000000202b5fc       0x14 /opt/devkitpro/devkitARM/bin/../lib/gcc/arm-none-eabi/12.2.0/../../../../arm-none-eabi/lib/libg.a(lib_a-abort.o)
                0x000000000202b5fc                abort
 .text.__call_exitprocs
                0x000000000202b610      0x124 /opt/devkitpro/devkitARM/bin/../lib/gcc/arm-none-eabi/12.2.0/../../../../arm-none-eabi/lib/libg.a(lib_a-__call_atexit.o)
                0x000000000202b610                __call_exitprocs
 .text.div      0x000000000202b734       0x2c /opt/devkitpro/devkitARM/bin/../lib/gcc/arm-none-eabi/12.2.0/../../../../arm-none-eabi/lib/libg.a(lib_a-div.o)
                0x000000000202b734                div
 .text.quorem   0x000000000202b760      0x1d0 /opt/devkitpro/devkitARM/bin/../lib/gcc/arm-none-eabi/12.2.0/../../../../arm-none-eabi/lib/libg.a(lib_a-dtoa.o)
 .text._dtoa_r  0x000000000202b930     0x1658 /opt/devkitpro/devkitARM/bin/../lib/gcc/arm-none-eabi/12.2.0/../../../../arm-none-eabi/lib/libg.a(lib_a-dtoa.o)
                0x000000000202b930                _dtoa_r
 .text.__sflags
                0x000000000202cf88       0xd0 /opt/devkitpro/devkitARM/bin/../lib/gcc/arm-none-eabi/12.2.0/../../../../arm-none-eabi/lib/libg.a(lib_a-flags.o)
                0x000000000202cf88                __sflags
 .text.__sfvwrite_r
                0x000000000202d058      0x4c8 /opt/devkitpro/devkitARM/bin/../lib/gcc/arm-none-eabi/12.2.0/../../../../arm-none-eabi/lib/libg.a(lib_a-fvwrite.o)
                0x000000000202d058                __sfvwrite_r
 .text._findenv_r
                0x000000000202d520       0xd0 /opt/devkitpro/devkitARM/bin/../lib/gcc/arm-none-eabi/12.2.0/../../../../arm-none-eabi/lib/libg.a(lib_a-getenv_r.o)
                0x000000000202d520                _findenv_r
 .text._getenv_r
                0x000000000202d5f0       0x1c /opt/devkitpro/devkitARM/bin/../lib/gcc/arm-none-eabi/12.2.0/../../../../arm-none-eabi/lib/libg.a(lib_a-getenv_r.o)
                0x000000000202d5f0                _getenv_r
 .text.__gettzinfo
                0x000000000202d60c        0xc /opt/devkitpro/devkitARM/bin/../lib/gcc/arm-none-eabi/12.2.0/../../../../arm-none-eabi/lib/libg.a(lib_a-gettzinfo.o)
                0x000000000202d60c                __gettzinfo
 .text.gmtime_r
                0x000000000202d618      0x26c /opt/devkitpro/devkitARM/bin/../lib/gcc/arm-none-eabi/12.2.0/../../../../arm-none-eabi/lib/libg.a(lib_a-gmtime_r.o)
                0x000000000202d618                gmtime_r
 .text._localeconv_r
                0x000000000202d884        0xc /opt/devkitpro/devkitARM/bin/../lib/gcc/arm-none-eabi/12.2.0/../../../../arm-none-eabi/lib/libg.a(lib_a-localeconv.o)
                0x000000000202d884                _localeconv_r
 .text._mbsnrtowcs_r
                0x000000000202d890      0x104 /opt/devkitpro/devkitARM/bin/../lib/gcc/arm-none-eabi/12.2.0/../../../../arm-none-eabi/lib/libg.a(lib_a-mbsnrtowcs.o)
                0x000000000202d890                _mbsnrtowcs_r
 .text.memchr   0x000000000202d994       0xf4 /opt/devkitpro/devkitARM/bin/../lib/gcc/arm-none-eabi/12.2.0/../../../../arm-none-eabi/lib/libg.a(lib_a-memchr-stub.o)
                0x000000000202d994                memchr
 .text._Balloc  0x000000000202da88       0x8c /opt/devkitpro/devkitARM/bin/../lib/gcc/arm-none-eabi/12.2.0/../../../../arm-none-eabi/lib/libg.a(lib_a-mprec.o)
                0x000000000202da88                _Balloc
 .text._Bfree   0x000000000202db14       0x1c /opt/devkitpro/devkitARM/bin/../lib/gcc/arm-none-eabi/12.2.0/../../../../arm-none-eabi/lib/libg.a(lib_a-mprec.o)
                0x000000000202db14                _Bfree
 .text.__multadd
                0x000000000202db30      0x100 /opt/devkitpro/devkitARM/bin/../lib/gcc/arm-none-eabi/12.2.0/../../../../arm-none-eabi/lib/libg.a(lib_a-mprec.o)
                0x000000000202db30                __multadd
 .text.__hi0bits
                0x000000000202dc30       0x60 /opt/devkitpro/devkitARM/bin/../lib/gcc/arm-none-eabi/12.2.0/../../../../arm-none-eabi/lib/libg.a(lib_a-mprec.o)
                0x000000000202dc30                __hi0bits
 .text.__lo0bits
                0x000000000202dc90       0xa0 /opt/devkitpro/devkitARM/bin/../lib/gcc/arm-none-eabi/12.2.0/../../../../arm-none-eabi/lib/libg.a(lib_a-mprec.o)
                0x000000000202dc90                __lo0bits
 .text.__i2b    0x000000000202dd30       0xa8 /opt/devkitpro/devkitARM/bin/../lib/gcc/arm-none-eabi/12.2.0/../../../../arm-none-eabi/lib/libg.a(lib_a-mprec.o)
                0x000000000202dd30                __i2b
 .text.__multiply
                0x000000000202ddd8      0x218 /opt/devkitpro/devkitARM/bin/../lib/gcc/arm-none-eabi/12.2.0/../../../../arm-none-eabi/lib/libg.a(lib_a-mprec.o)
                0x000000000202ddd8                __multiply
 .text.__pow5mult
                0x000000000202dff0      0x128 /opt/devkitpro/devkitARM/bin/../lib/gcc/arm-none-eabi/12.2.0/../../../../arm-none-eabi/lib/libg.a(lib_a-mprec.o)
                0x000000000202dff0                __pow5mult
 .text.__lshift
                0x000000000202e118      0x144 /opt/devkitpro/devkitARM/bin/../lib/gcc/arm-none-eabi/12.2.0/../../../../arm-none-eabi/lib/libg.a(lib_a-mprec.o)
                0x000000000202e118                __lshift
 .text.__mcmp   0x000000000202e25c       0x54 /opt/devkitpro/devkitARM/bin/../lib/gcc/arm-none-eabi/12.2.0/../../../../arm-none-eabi/lib/libg.a(lib_a-mprec.o)
                0x000000000202e25c                __mcmp
 .text.__mdiff  0x000000000202e2b0      0x204 /opt/devkitpro/devkitARM/bin/../lib/gcc/arm-none-eabi/12.2.0/../../../../arm-none-eabi/lib/libg.a(lib_a-mprec.o)
                0x000000000202e2b0                __mdiff
 .text.__d2b    0x000000000202e4b4      0x128 /opt/devkitpro/devkitARM/bin/../lib/gcc/arm-none-eabi/12.2.0/../../../../arm-none-eabi/lib/libg.a(lib_a-mprec.o)
                0x000000000202e4b4                __d2b
 .text.frexp    0x000000000202e5dc       0xa4 /opt/devkitpro/devkitARM/bin/../lib/gcc/arm-none-eabi/12.2.0/../../../../arm-none-eabi/lib/libg.a(lib_a-s_frexp.o)
                0x000000000202e5dc                frexp
 .text._raise_r
                0x000000000202e680       0x94 /opt/devkitpro/devkitARM/bin/../lib/gcc/arm-none-eabi/12.2.0/../../../../arm-none-eabi/lib/libg.a(lib_a-signal.o)
                0x000000000202e680                _raise_r
 .text.raise    0x000000000202e714       0x18 /opt/devkitpro/devkitARM/bin/../lib/gcc/arm-none-eabi/12.2.0/../../../../arm-none-eabi/lib/libg.a(lib_a-signal.o)
                0x000000000202e714                raise
 .text.siscanf  0x000000000202e72c       0x74 /opt/devkitpro/devkitARM/bin/../lib/gcc/arm-none-eabi/12.2.0/../../../../arm-none-eabi/lib/libg.a(lib_a-siscanf.o)
                0x000000000202e72c                siscanf
 .text._strtoul_l.constprop.0
                0x000000000202e7a0      0x1c8 /opt/devkitpro/devkitARM/bin/../lib/gcc/arm-none-eabi/12.2.0/../../../../arm-none-eabi/lib/libg.a(lib_a-strtoul.o)
 .text._strtoul_r
                0x000000000202e968        0x4 /opt/devkitpro/devkitARM/bin/../lib/gcc/arm-none-eabi/12.2.0/../../../../arm-none-eabi/lib/libg.a(lib_a-strtoul.o)
                0x000000000202e968                _strtoul_r
 .text.strtoul  0x000000000202e96c       0x28 /opt/devkitpro/devkitARM/bin/../lib/gcc/arm-none-eabi/12.2.0/../../../../arm-none-eabi/lib/libg.a(lib_a-strtoul.o)
                0x000000000202e96c                strtoul
 .text.__ssprint_r
                0x000000000202e994      0x18c /opt/devkitpro/devkitARM/bin/../lib/gcc/arm-none-eabi/12.2.0/../../../../arm-none-eabi/lib/libg.a(lib_a-svfiprintf.o)
                0x000000000202e994                __ssprint_r
 .text.get_arg  0x000000000202eb20       0x54 /opt/devkitpro/devkitARM/bin/../lib/gcc/arm-none-eabi/12.2.0/../../../../arm-none-eabi/lib/libg.a(lib_a-svfiscanf.o)
 .text._sungetc_r
                0x000000000202eb74       0xdc /opt/devkitpro/devkitARM/bin/../lib/gcc/arm-none-eabi/12.2.0/../../../../arm-none-eabi/lib/libg.a(lib_a-svfiscanf.o)
                0x000000000202eb74                _sungetc_r
 .text.__ssrefill_r
                0x000000000202ec50       0x68 /opt/devkitpro/devkitARM/bin/../lib/gcc/arm-none-eabi/12.2.0/../../../../arm-none-eabi/lib/libg.a(lib_a-svfiscanf.o)
                0x000000000202ec50                __ssrefill_r
 .text._sfread_r
                0x000000000202ecb8       0xc8 /opt/devkitpro/devkitARM/bin/../lib/gcc/arm-none-eabi/12.2.0/../../../../arm-none-eabi/lib/libg.a(lib_a-svfiscanf.o)
                0x000000000202ecb8                _sfread_r
 .text.__ssvfiscanf_r
                0x000000000202ed80     0x2338 /opt/devkitpro/devkitARM/bin/../lib/gcc/arm-none-eabi/12.2.0/../../../../arm-none-eabi/lib/libg.a(lib_a-svfiscanf.o)
                0x000000000202ed80                __ssvfiscanf_r
 .text.towctrans
                0x00000000020310b8       0x48 /opt/devkitpro/devkitARM/bin/../lib/gcc/arm-none-eabi/12.2.0/../../../../arm-none-eabi/lib/libg.a(lib_a-towctrans.o)
                0x00000000020310b8                towctrans
 .text.__submore
                0x0000000002031100       0xa8 /opt/devkitpro/devkitARM/bin/../lib/gcc/arm-none-eabi/12.2.0/../../../../arm-none-eabi/lib/libg.a(lib_a-ungetc.o)
                0x0000000002031100                __submore
 .text._wcsnrtombs_l
                0x00000000020311a8      0x198 /opt/devkitpro/devkitARM/bin/../lib/gcc/arm-none-eabi/12.2.0/../../../../arm-none-eabi/lib/libg.a(lib_a-wcsnrtombs.o)
                0x00000000020311a8                _wcsnrtombs_l
 .text._wcsnrtombs_r
                0x0000000002031340       0x50 /opt/devkitpro/devkitARM/bin/../lib/gcc/arm-none-eabi/12.2.0/../../../../arm-none-eabi/lib/libg.a(lib_a-wcsnrtombs.o)
                0x0000000002031340                _wcsnrtombs_r
 .text.__env_lock
                0x0000000002031390       0x18 /opt/devkitpro/devkitARM/bin/../lib/gcc/arm-none-eabi/12.2.0/../../../../arm-none-eabi/lib/libg.a(lib_a-envlock.o)
                0x0000000002031390                __env_lock
 .text.__env_unlock
                0x00000000020313a8       0x18 /opt/devkitpro/devkitARM/bin/../lib/gcc/arm-none-eabi/12.2.0/../../../../arm-none-eabi/lib/libg.a(lib_a-envlock.o)
                0x00000000020313a8                __env_unlock
 .text.iswspace
                0x00000000020313c0       0x14 /opt/devkitpro/devkitARM/bin/../lib/gcc/arm-none-eabi/12.2.0/../../../../arm-none-eabi/lib/libg.a(lib_a-iswspace.o)
                0x00000000020313c0                iswspace
 .text.__sccl   0x00000000020313d4       0xe4 /opt/devkitpro/devkitARM/bin/../lib/gcc/arm-none-eabi/12.2.0/../../../../arm-none-eabi/lib/libg.a(lib_a-sccl.o)
                0x00000000020313d4                __sccl
 .text._strtoll_l.constprop.0
                0x00000000020314b8      0x234 /opt/devkitpro/devkitARM/bin/../lib/gcc/arm-none-eabi/12.2.0/../../../../arm-none-eabi/lib/libg.a(lib_a-strtoll.o)
 .text._strtoll_r
                0x00000000020316ec        0x4 /opt/devkitpro/devkitARM/bin/../lib/gcc/arm-none-eabi/12.2.0/../../../../arm-none-eabi/lib/libg.a(lib_a-strtoll.o)
                0x00000000020316ec                _strtoll_r
 .text._strtoull_l.constprop.0
                0x00000000020316f0      0x248 /opt/devkitpro/devkitARM/bin/../lib/gcc/arm-none-eabi/12.2.0/../../../../arm-none-eabi/lib/libg.a(lib_a-strtoull.o)
 .text._strtoull_r
                0x0000000002031938        0x4 /opt/devkitpro/devkitARM/bin/../lib/gcc/arm-none-eabi/12.2.0/../../../../arm-none-eabi/lib/libg.a(lib_a-strtoull.o)
                0x0000000002031938                _strtoull_r
 .text.towctrans_l
                0x000000000203193c      0x274 /opt/devkitpro/devkitARM/bin/../lib/gcc/arm-none-eabi/12.2.0/../../../../arm-none-eabi/lib/libg.a(lib_a-towctrans_l.o)
                0x000000000203193c                towctrans_l
 .text.iswspace_l
                0x0000000002031bb0       0x44 /opt/devkitpro/devkitARM/bin/../lib/gcc/arm-none-eabi/12.2.0/../../../../arm-none-eabi/lib/libg.a(lib_a-iswspace_l.o)
                0x0000000002031bb0                iswspace_l
 .text.__jp2uc  0x0000000002031bf4      0x1e8 /opt/devkitpro/devkitARM/bin/../lib/gcc/arm-none-eabi/12.2.0/../../../../arm-none-eabi/lib/libg.a(lib_a-jp2uc.o)
 .text._jp2uc_l
                0x0000000002031ddc       0x94 /opt/devkitpro/devkitARM/bin/../lib/gcc/arm-none-eabi/12.2.0/../../../../arm-none-eabi/lib/libg.a(lib_a-jp2uc.o)
                0x0000000002031ddc                _jp2uc_l
 .text._uc2jp_l
                0x0000000002031e70       0x74 /opt/devkitpro/devkitARM/bin/../lib/gcc/arm-none-eabi/12.2.0/../../../../arm-none-eabi/lib/libg.a(lib_a-jp2uc.o)
                0x0000000002031e70                _uc2jp_l
 .text.category
                0x0000000002031ee4       0x94 /opt/devkitpro/devkitARM/bin/../lib/gcc/arm-none-eabi/12.2.0/../../../../arm-none-eabi/lib/libg.a(lib_a-categories.o)
                0x0000000002031ee4                category
 .text.null_write
                0x0000000002031f78        0x8 /opt/devkitpro/devkitARM/bin/../lib/gcc/arm-none-eabi/12.2.0/../../../../arm-none-eabi/lib/libsysbase.a(iosupport.o)
 .text.setDefaultDevice
                0x0000000002031f80       0x18 /opt/devkitpro/devkitARM/bin/../lib/gcc/arm-none-eabi/12.2.0/../../../../arm-none-eabi/lib/libsysbase.a(iosupport.o)
                0x0000000002031f80                setDefaultDevice
 .text.FindDevice
                0x0000000002031f98       0xd4 /opt/devkitpro/devkitARM/bin/../lib/gcc/arm-none-eabi/12.2.0/../../../../arm-none-eabi/lib/libsysbase.a(iosupport.o)
                0x0000000002031f98                FindDevice
 .text.AddDevice
                0x000000000203206c       0xa4 /opt/devkitpro/devkitARM/bin/../lib/gcc/arm-none-eabi/12.2.0/../../../../arm-none-eabi/lib/libsysbase.a(iosupport.o)
                0x000000000203206c                AddDevice
 .text.GetDeviceOpTab
                0x0000000002032110       0x24 /opt/devkitpro/devkitARM/bin/../lib/gcc/arm-none-eabi/12.2.0/../../../../arm-none-eabi/lib/libsysbase.a(iosupport.o)
                0x0000000002032110                GetDeviceOpTab
 .text._fstat_r
                0x0000000002032134       0x7c /opt/devkitpro/devkitARM/bin/../lib/gcc/arm-none-eabi/12.2.0/../../../../arm-none-eabi/lib/libsysbase.a(fstat.o)
                0x0000000002032134                _fstat_r
 .text._getpid_r
                0x00000000020321b0       0x14 /opt/devkitpro/devkitARM/bin/../lib/gcc/arm-none-eabi/12.2.0/../../../../arm-none-eabi/lib/libsysbase.a(getpid.o)
                0x00000000020321b0                _getpid_r
 .text._gettimeofday_r
                0x00000000020321c4       0x34 /opt/devkitpro/devkitARM/bin/../lib/gcc/arm-none-eabi/12.2.0/../../../../arm-none-eabi/lib/libsysbase.a(gettod.o)
                0x00000000020321c4                _gettimeofday_r
 .text._isatty_r
                0x00000000020321f8        0x8 /opt/devkitpro/devkitARM/bin/../lib/gcc/arm-none-eabi/12.2.0/../../../../arm-none-eabi/lib/libsysbase.a(isatty.o)
                0x00000000020321f8                _isatty_r
 .text._kill_r  0x0000000002032200       0x14 /opt/devkitpro/devkitARM/bin/../lib/gcc/arm-none-eabi/12.2.0/../../../../arm-none-eabi/lib/libsysbase.a(kill.o)
                0x0000000002032200                _kill_r
 .text._lseek_r
                0x0000000002032214       0x88 /opt/devkitpro/devkitARM/bin/../lib/gcc/arm-none-eabi/12.2.0/../../../../arm-none-eabi/lib/libsysbase.a(lseek.o)
                0x0000000002032214                _lseek_r
 .text._open_r  0x000000000203229c       0xc8 /opt/devkitpro/devkitARM/bin/../lib/gcc/arm-none-eabi/12.2.0/../../../../arm-none-eabi/lib/libsysbase.a(open.o)
                0x000000000203229c                _open_r
 .text._read_r  0x0000000002032364       0x84 /opt/devkitpro/devkitARM/bin/../lib/gcc/arm-none-eabi/12.2.0/../../../../arm-none-eabi/lib/libsysbase.a(read.o)
                0x0000000002032364                _read_r
 .text._sbrk_r  0x00000000020323e8       0x7c /opt/devkitpro/devkitARM/bin/../lib/gcc/arm-none-eabi/12.2.0/../../../../arm-none-eabi/lib/libsysbase.a(sbrk.o)
                0x00000000020323e8                _sbrk_r
 .text._write_r
                0x0000000002032464       0x84 /opt/devkitpro/devkitARM/bin/../lib/gcc/arm-none-eabi/12.2.0/../../../../arm-none-eabi/lib/libsysbase.a(write.o)
                0x0000000002032464                _write_r
 .text._exit    0x00000000020324e8       0x20 /opt/devkitpro/devkitARM/bin/../lib/gcc/arm-none-eabi/12.2.0/../../../../arm-none-eabi/lib/libsysbase.a(_exit.o)
                0x00000000020324e8                _exit
 .text._concatenate_path
                0x0000000002032508      0x1b0 /opt/devkitpro/devkitARM/bin/../lib/gcc/arm-none-eabi/12.2.0/../../../../arm-none-eabi/lib/libsysbase.a(chdir.o)
                0x0000000002032508                _concatenate_path
 .text.chdir    0x00000000020326b8      0x148 /opt/devkitpro/devkitARM/bin/../lib/gcc/arm-none-eabi/12.2.0/../../../../arm-none-eabi/lib/libsysbase.a(chdir.o)
                0x00000000020326b8                chdir
 .text.getcwd   0x0000000002032800       0x8c /opt/devkitpro/devkitARM/bin/../lib/gcc/arm-none-eabi/12.2.0/../../../../arm-none-eabi/lib/libsysbase.a(chdir.o)
                0x0000000002032800                getcwd
 .text.build_argv
                0x000000000203288c       0x80 /opt/devkitpro/devkitARM/bin/../lib/gcc/arm-none-eabi/12.2.0/../../../../arm-none-eabi/lib/libsysbase.a(build_argv.o)
                0x000000000203288c                build_argv
 .text.__flockfile
                0x000000000203290c       0x14 /opt/devkitpro/devkitARM/bin/../lib/gcc/arm-none-eabi/12.2.0/../../../../arm-none-eabi/lib/libsysbase.a(flock.o)
                0x000000000203290c                __flockfile
 .text.__funlockfile
                0x0000000002032920       0x14 /opt/devkitpro/devkitARM/bin/../lib/gcc/arm-none-eabi/12.2.0/../../../../arm-none-eabi/lib/libsysbase.a(flock.o)
                0x0000000002032920                __funlockfile
 .text.__release_handle
                0x0000000002032934       0x90 /opt/devkitpro/devkitARM/bin/../lib/gcc/arm-none-eabi/12.2.0/../../../../arm-none-eabi/lib/libsysbase.a(handle_manager.o)
                0x0000000002032934                __release_handle
 .text.__alloc_handle
                0x00000000020329c4       0xb4 /opt/devkitpro/devkitARM/bin/../lib/gcc/arm-none-eabi/12.2.0/../../../../arm-none-eabi/lib/libsysbase.a(handle_manager.o)
                0x00000000020329c4                __alloc_handle
 .text.__get_handle
                0x0000000002032a78       0x40 /opt/devkitpro/devkitARM/bin/../lib/gcc/arm-none-eabi/12.2.0/../../../../arm-none-eabi/lib/libsysbase.a(handle_manager.o)
                0x0000000002032a78                __get_handle
 .text._close_r
                0x0000000002032ab8       0xfc /opt/devkitpro/devkitARM/bin/../lib/gcc/arm-none-eabi/12.2.0/../../../../arm-none-eabi/lib/libsysbase.a(handle_manager.o)
                0x0000000002032ab8                _close_r
 .text.__getreent
                0x0000000002032bb4       0x30 /opt/devkitpro/devkitARM/bin/../lib/gcc/arm-none-eabi/12.2.0/../../../../arm-none-eabi/lib/libsysbase.a(getreent.o)
                0x0000000002032bb4                __getreent
 .text.__libc_lock_acquire
                0x0000000002032be4       0x20 /opt/devkitpro/devkitARM/bin/../lib/gcc/arm-none-eabi/12.2.0/../../../../arm-none-eabi/lib/libsysbase.a(syscall_support.o)
                0x0000000002032be4                __libc_lock_acquire
 .text.__libc_lock_release
                0x0000000002032c04       0x20 /opt/devkitpro/devkitARM/bin/../lib/gcc/arm-none-eabi/12.2.0/../../../../arm-none-eabi/lib/libsysbase.a(syscall_support.o)
                0x0000000002032c04                __libc_lock_release
 .text.__libc_lock_init_recursive
                0x0000000002032c24       0x20 /opt/devkitpro/devkitARM/bin/../lib/gcc/arm-none-eabi/12.2.0/../../../../arm-none-eabi/lib/libsysbase.a(syscall_support.o)
                0x0000000002032c24                __libc_lock_init_recursive
 .text.__libc_lock_acquire_recursive
                0x0000000002032c44       0x20 /opt/devkitpro/devkitARM/bin/../lib/gcc/arm-none-eabi/12.2.0/../../../../arm-none-eabi/lib/libsysbase.a(syscall_support.o)
                0x0000000002032c44                __libc_lock_acquire_recursive
 .text.__libc_lock_release_recursive
                0x0000000002032c64       0x20 /opt/devkitpro/devkitARM/bin/../lib/gcc/arm-none-eabi/12.2.0/../../../../arm-none-eabi/lib/libsysbase.a(syscall_support.o)
                0x0000000002032c64                __libc_lock_release_recursive
 .text.__libc_lock_close_recursive
                0x0000000002032c84       0x20 /opt/devkitpro/devkitARM/bin/../lib/gcc/arm-none-eabi/12.2.0/../../../../arm-none-eabi/lib/libsysbase.a(syscall_support.o)
                0x0000000002032c84                __libc_lock_close_recursive
 *fill*         0x0000000002032ca4        0x4 ff
 .text.__libc_lock_close_recursive.__stub
                0x0000000002032ca8      0x218 linker stubs
 *(EXCLUDE_FILE(*.twl*) .gnu.warning)
 *(EXCLUDE_FILE(*.twl*) .gnu.linkonce.t*)
 *(.glue_7)
 .glue_7        0x0000000002032ef0        0x0 linker stubs
 *(.glue_7t)
 .glue_7t       0x0000000002032ef0        0x0 linker stubs
                0x0000000002032ef0                . = ALIGN (0x4)

.vfp11_veneer   0x0000000002032ef0        0x0
 .vfp11_veneer  0x0000000002032ef0        0x0 linker stubs

.v4_bx          0x0000000002032ef0        0x0
 .v4_bx         0x0000000002032ef0        0x0 linker stubs

.iplt           0x0000000002032ef0        0x0
 .iplt          0x0000000002032ef0        0x0 /opt/devkitpro/devkitARM/bin/../lib/gcc/arm-none-eabi/12.2.0/../../../../arm-none-eabi/lib/ds_arm9_crt0.o

.fini           0x0000000002032ef0       0x18
 *(.fini)
 .fini          0x0000000002032ef0        0xc /opt/devkitpro/devkitARM/bin/../lib/gcc/arm-none-eabi/12.2.0/crti.o
                0x0000000002032ef0                _fini
 .fini          0x0000000002032efc        0xc /opt/devkitpro/devkitARM/bin/../lib/gcc/arm-none-eabi/12.2.0/crtn.o
                0x0000000002032f08                __text_end = .

.rodata         0x0000000002032f08     0x8a98
 *(EXCLUDE_FILE(*.twl*) .rodata)
 .rodata        0x0000000002032f08        0xe ../GL1Common/LoadBitmapGL1.o
 *fill*         0x0000000002032f16        0x2 ff
 .rodata        0x0000000002032f18       0x14 ../GL1Common/RendererGL1.o
 .rodata        0x0000000002032f2c       0x40 ../GL1Common/Renderer_TesselationGL1.o
 .rodata        0x0000000002032f6c        0xa ../base3d/src/VisibilityStrategy.o
 *fill*         0x0000000002032f76        0x2 ff
 .rodata        0x0000000002032f78       0x3b ../../common/src/PackedFileReader.o
 *fill*         0x0000000002032fb3        0x1 ff
 .rodata        0x0000000002032fb4       0x4b ../base3d/src/EDirection_Utils.o
 *fill*         0x0000000002032fff        0x1 ff
 .rodata        0x0000000002033000       0x27 ../../core/src/Core.o
 *fill*         0x0000000002033027        0x1 ff
 .rodata        0x0000000002033028       0x24 /opt/devkitpro/libnds/lib/libnds9.a(videoGL.o)
 *all.rodata*(*)
 *(EXCLUDE_FILE(*.twl*) .roda)
 *(EXCLUDE_FILE(*.twl*) .rodata.*)
 .rodata.str1.4
                0x000000000203304c       0x4d ../menu/src/MainMenu.o
 *fill*         0x0000000002033099        0x3 ff
 .rodata.str1.4
                0x000000000203309c       0x3a ../menu/src/Crawler.o
 *fill*         0x00000000020330d6        0x2 ff
 .rodata.str1.4
                0x00000000020330d8       0x11 ../menu/src/HelpScreen.o
                                         0x1d (size before relaxing)
 *fill*         0x00000000020330e9        0x3 ff
 .rodata.str1.4
                0x00000000020330ec       0x2f ../menu/src/BattleScreen.o
                                         0x3b (size before relaxing)
 *fill*         0x000000000203311b        0x1 ff
 .rodata.str1.4
                0x000000000203311c       0x56 ../menu/src/CreditsScreen.o
                                         0x71 (size before relaxing)
 *fill*         0x0000000002033172        0x2 ff
 .rodata.str1.4
                0x0000000002033174      0x1e8 ../menu/src/GameMenu.o
                                        0x1f9 (size before relaxing)
 .rodata.str1.4
                0x000000000203335c       0x10 ../menu/src/Main.o
 .rodata.str1.4
                0x000000000203336c        0x9 ../base3d/src/nitro/NitroGLRenderer.o
 *fill*         0x0000000002033375        0x3 ff
 .rodata.str1.4
                0x0000000002033378       0x29 ../GL1Common/LoadBitmapGL1.o
 *fill*         0x00000000020333a1        0x3 ff
 .rodata.str1.4
                0x00000000020333a4       0x3b ../GL1Common/RendererGL1.o
 *fill*         0x00000000020333df        0x1 ff
 .rodata.str1.4
                0x00000000020333e0       0x23 ../base3d/src/VisibilityStrategy.o
                                         0x2b (size before relaxing)
 *fill*         0x0000000002033403        0x1 ff
 .rodata.str1.4
                0x0000000002033404      0x12b ../../common/src/PackedFileReader.o
                                        0x133 (size before relaxing)
 *fill*         0x000000000203352f        0x1 ff
 .rodata.str1.4
                0x0000000002033530       0x2b ../base3d/src/Events.o
 *fill*         0x000000000203355b        0x1 ff
 .rodata.str1.4
                0x000000000203355c       0x21 ../base3d/src/EDirection_Utils.o
                                         0x29 (size before relaxing)
 *fill*         0x000000000203357d        0x3 ff
 .rodata.str1.4
                0x0000000002033580       0x39 ../base3d/src/Dungeon.o
 *fill*         0x00000000020335b9        0x3 ff
 .rodata.str1.4
                0x00000000020335bc        0x6 ../menu/src/UI.o
 *fill*         0x00000000020335c2        0x2 ff
 .rodata.str1.4
                0x00000000020335c4       0xa8 ../menu/src/HackingScreen.o
 .rodata.str1.4
                0x000000000203366c      0xe5f ../../core/src/Derelict.o
                                        0xe7b (size before relaxing)
 *fill*         0x00000000020344cb        0x1 ff
 .rodata.str1.4
                0x00000000020344cc      0x230 ../../core/src/Core.o
                                        0x260 (size before relaxing)
 .rodata.str1.4
                0x00000000020346fc       0x39 ../../core/src/Parser.o
                                         0x71 (size before relaxing)
 *fill*         0x0000000002034735        0x3 ff
 .rodata.nitroFSInit.str1.4
                0x0000000002034738        0x8 /opt/devkitpro/libnds/lib/libfilesystem.a(nitrofs.o)
 .rodata.str1.4
                0x0000000002034740        0x6 /opt/devkitpro/libnds/lib/libfilesystem.a(nitrofs.o)
                                          0xe (size before relaxing)
 .rodata.fatMount.part.0.str1.4
                0x0000000002034746        0x6 /opt/devkitpro/libnds/lib/libfat.a(libfat.o)
                                          0x2 (size before relaxing)
 *fill*         0x0000000002034746        0x2 ff
 .rodata.fatInit.str1.4
                0x0000000002034748        0x3 /opt/devkitpro/libnds/lib/libfat.a(libfat.o)
 *fill*         0x000000000203474b        0x1 ff
 .rodata.str1.4
                0x000000000203474c        0x4 /opt/devkitpro/libnds/lib/libfat.a(libfat.o)
 .rodata.dotab_fat
                0x0000000002034750       0x70 /opt/devkitpro/libnds/lib/libfat.a(libfat.o)
 .rodata.str1.4
                0x00000000020347c0        0x3 /opt/devkitpro/libnds/lib/libfat.a(disc.o)
                                          0x8 (size before relaxing)
 *fill*         0x00000000020347c3        0x1 ff
 .rodata._FAT_disc_interfaces
                0x00000000020347c4       0x18 /opt/devkitpro/libnds/lib/libfat.a(disc.o)
                0x00000000020347c4                _FAT_disc_interfaces
 .rodata._FAT_directory_entryFromPath.str1.4
                0x00000000020347dc        0x7 /opt/devkitpro/libnds/lib/libfat.a(directory.o)
 .rodata.ILLEGAL_ALIAS_CHARACTERS
                0x00000000020347dc       0x12 /opt/devkitpro/libnds/lib/libfat.a(directory.o)
 *fill*         0x00000000020347ee        0x2 ff
 .rodata.ILLEGAL_LFN_CHARACTERS
                0x00000000020347f0        0xa /opt/devkitpro/libnds/lib/libfat.a(directory.o)
 *fill*         0x00000000020347fa        0x2 ff
 .rodata.LFN_offset_table
                0x00000000020347fc       0x34 /opt/devkitpro/libnds/lib/libfat.a(directory.o)
 .rodata.FAT_SIG
                0x0000000002034830        0x3 /opt/devkitpro/libnds/lib/libfat.a(partition.o)
 *fill*         0x0000000002034833        0x1 ff
 .rodata.FS_TWL_SIG
                0x0000000002034834        0x8 /opt/devkitpro/libnds/lib/libfat.a(partition.o)
 .rodata.__assert_func.str1.4
                0x000000000203483c       0x3f /opt/devkitpro/devkitARM/bin/../lib/gcc/arm-none-eabi/12.2.0/../../../../arm-none-eabi/lib/libg.a(lib_a-assert.o)
                                         0x43 (size before relaxing)
 *fill*         0x000000000203487b        0x1 ff
 .rodata._ctype_
                0x000000000203487c      0x101 /opt/devkitpro/devkitARM/bin/../lib/gcc/arm-none-eabi/12.2.0/../../../../arm-none-eabi/lib/libg.a(lib_a-ctype_.o)
                0x000000000203487c                _ctype_
 *fill*         0x000000000203497d        0x3 ff
 .rodata._global_impure_ptr
                0x0000000002034980        0x4 /opt/devkitpro/devkitARM/bin/../lib/gcc/arm-none-eabi/12.2.0/../../../../arm-none-eabi/lib/libg.a(lib_a-impure.o)
                0x0000000002034980                _global_impure_ptr
 .rodata.str1.4
                0x0000000002034984       0x44 /opt/devkitpro/devkitARM/bin/../lib/gcc/arm-none-eabi/12.2.0/../../../../arm-none-eabi/lib/libg.a(lib_a-locale.o)
                                         0x4c (size before relaxing)
 .rodata._mbrtowc_r.str1.4
                0x00000000020349c8        0x1 /opt/devkitpro/devkitARM/bin/../lib/gcc/arm-none-eabi/12.2.0/../../../../arm-none-eabi/lib/libg.a(lib_a-mbrtowc.o)
 .rodata._DAYS_BEFORE_MONTH
                0x00000000020349c8       0x30 /opt/devkitpro/devkitARM/bin/../lib/gcc/arm-none-eabi/12.2.0/../../../../arm-none-eabi/lib/libg.a(lib_a-mktime.o)
 .rodata.DAYS_IN_MONTH
                0x00000000020349f8       0x30 /opt/devkitpro/devkitARM/bin/../lib/gcc/arm-none-eabi/12.2.0/../../../../arm-none-eabi/lib/libg.a(lib_a-mktime.o)
 .rodata.__month_lengths
                0x0000000002034a28       0x60 /opt/devkitpro/devkitARM/bin/../lib/gcc/arm-none-eabi/12.2.0/../../../../arm-none-eabi/lib/libg.a(lib_a-month_lengths.o)
                0x0000000002034a28                __month_lengths
 .rodata._svfprintf_r.str1.1
                0x0000000002034a88       0x3b /opt/devkitpro/devkitARM/bin/../lib/gcc/arm-none-eabi/12.2.0/../../../../arm-none-eabi/lib/libg.a(lib_a-svfprintf.o)
 *fill*         0x0000000002034ac3        0x1 ff
 .rodata.zeroes.0
                0x0000000002034ac4       0x10 /opt/devkitpro/devkitARM/bin/../lib/gcc/arm-none-eabi/12.2.0/../../../../arm-none-eabi/lib/libg.a(lib_a-svfprintf.o)
 .rodata.blanks.1
                0x0000000002034ad4       0x10 /opt/devkitpro/devkitARM/bin/../lib/gcc/arm-none-eabi/12.2.0/../../../../arm-none-eabi/lib/libg.a(lib_a-svfprintf.o)
 .rodata._tzset_unlocked_r.str1.4
                0x0000000002034ae4       0x53 /opt/devkitpro/devkitARM/bin/../lib/gcc/arm-none-eabi/12.2.0/../../../../arm-none-eabi/lib/libg.a(lib_a-tzset_r.o)
 .rodata.str1.4
                0x0000000002034b37        0x4 /opt/devkitpro/devkitARM/bin/../lib/gcc/arm-none-eabi/12.2.0/../../../../arm-none-eabi/lib/libg.a(lib_a-tzvars.o)
 .rodata._vfiprintf_r.str1.1
                0x0000000002034b37       0x29 /opt/devkitpro/devkitARM/bin/../lib/gcc/arm-none-eabi/12.2.0/../../../../arm-none-eabi/lib/libg.a(lib_a-vfiprintf.o)
 *fill*         0x0000000002034b37        0x1 ff
 .rodata.zeroes.0
                0x0000000002034b38       0x10 /opt/devkitpro/devkitARM/bin/../lib/gcc/arm-none-eabi/12.2.0/../../../../arm-none-eabi/lib/libg.a(lib_a-vfiprintf.o)
 .rodata.blanks.1
                0x0000000002034b48       0x10 /opt/devkitpro/devkitARM/bin/../lib/gcc/arm-none-eabi/12.2.0/../../../../arm-none-eabi/lib/libg.a(lib_a-vfiprintf.o)
 .rodata._vfprintf_r.str1.1
                0x0000000002034b58       0x3b /opt/devkitpro/devkitARM/bin/../lib/gcc/arm-none-eabi/12.2.0/../../../../arm-none-eabi/lib/libg.a(lib_a-vfprintf.o)
 .rodata.zeroes.0
                0x0000000002034b58       0x10 /opt/devkitpro/devkitARM/bin/../lib/gcc/arm-none-eabi/12.2.0/../../../../arm-none-eabi/lib/libg.a(lib_a-vfprintf.o)
 .rodata.blanks.1
                0x0000000002034b68       0x10 /opt/devkitpro/devkitARM/bin/../lib/gcc/arm-none-eabi/12.2.0/../../../../arm-none-eabi/lib/libg.a(lib_a-vfprintf.o)
 .rodata._dtoa_r.str1.4
                0x0000000002034b78       0x66 /opt/devkitpro/devkitARM/bin/../lib/gcc/arm-none-eabi/12.2.0/../../../../arm-none-eabi/lib/libg.a(lib_a-dtoa.o)
                                         0x6a (size before relaxing)
 *fill*         0x0000000002034bde        0x2 ff
 .rodata.__multadd.str1.4
                0x0000000002034be0       0x43 /opt/devkitpro/devkitARM/bin/../lib/gcc/arm-none-eabi/12.2.0/../../../../arm-none-eabi/lib/libg.a(lib_a-mprec.o)
                                         0x57 (size before relaxing)
 *fill*         0x0000000002034c23        0x1 ff
 .rodata.p05.0  0x0000000002034c24        0xc /opt/devkitpro/devkitARM/bin/../lib/gcc/arm-none-eabi/12.2.0/../../../../arm-none-eabi/lib/libg.a(lib_a-mprec.o)
 .rodata.__mprec_bigtens
                0x0000000002034c30       0x28 /opt/devkitpro/devkitARM/bin/../lib/gcc/arm-none-eabi/12.2.0/../../../../arm-none-eabi/lib/libg.a(lib_a-mprec.o)
                0x0000000002034c30                __mprec_bigtens
 .rodata.__mprec_tens
                0x0000000002034c58       0xc8 /opt/devkitpro/devkitARM/bin/../lib/gcc/arm-none-eabi/12.2.0/../../../../arm-none-eabi/lib/libg.a(lib_a-mprec.o)
                0x0000000002034c58                __mprec_tens
 .rodata.__action_table
                0x0000000002034d20       0x6c /opt/devkitpro/devkitARM/bin/../lib/gcc/arm-none-eabi/12.2.0/../../../../arm-none-eabi/lib/libg.a(lib_a-svfiprintf.o)
                0x0000000002034d20                __action_table
 .rodata.__state_table
                0x0000000002034d8c       0x6c /opt/devkitpro/devkitARM/bin/../lib/gcc/arm-none-eabi/12.2.0/../../../../arm-none-eabi/lib/libg.a(lib_a-svfiprintf.o)
                0x0000000002034d8c                __state_table
 .rodata.__chclass
                0x0000000002034df8      0x100 /opt/devkitpro/devkitARM/bin/../lib/gcc/arm-none-eabi/12.2.0/../../../../arm-none-eabi/lib/libg.a(lib_a-svfiprintf.o)
                0x0000000002034df8                __chclass
 .rodata.basefix.0
                0x0000000002034ef8       0x22 /opt/devkitpro/devkitARM/bin/../lib/gcc/arm-none-eabi/12.2.0/../../../../arm-none-eabi/lib/libg.a(lib_a-svfiscanf.o)
 *fill*         0x0000000002034f1a        0x2 ff
 .rodata._jp2uc_l.str1.4
                0x0000000002034f1c       0x12 /opt/devkitpro/devkitARM/bin/../lib/gcc/arm-none-eabi/12.2.0/../../../../arm-none-eabi/lib/libg.a(lib_a-jp2uc.o)
 *fill*         0x0000000002034f2e        0x2 ff
 .rodata.d02f4  0x0000000002034f30     0x1a7c /opt/devkitpro/devkitARM/bin/../lib/gcc/arm-none-eabi/12.2.0/../../../../arm-none-eabi/lib/libg.a(lib_a-jp2uc.o)
 .rodata.b02cf  0x00000000020369ac     0x172a /opt/devkitpro/devkitARM/bin/../lib/gcc/arm-none-eabi/12.2.0/../../../../arm-none-eabi/lib/libg.a(lib_a-jp2uc.o)
 *fill*         0x00000000020380d6        0x2 ff
 .rodata.a8     0x00000000020380d8       0x40 /opt/devkitpro/devkitARM/bin/../lib/gcc/arm-none-eabi/12.2.0/../../../../arm-none-eabi/lib/libg.a(lib_a-jp2uc.o)
 .rodata.a7     0x0000000002038118       0xa2 /opt/devkitpro/devkitARM/bin/../lib/gcc/arm-none-eabi/12.2.0/../../../../arm-none-eabi/lib/libg.a(lib_a-jp2uc.o)
 *fill*         0x00000000020381ba        0x2 ff
 .rodata.a6     0x00000000020381bc       0x70 /opt/devkitpro/devkitARM/bin/../lib/gcc/arm-none-eabi/12.2.0/../../../../arm-none-eabi/lib/libg.a(lib_a-jp2uc.o)
 .rodata.a3     0x000000000203822c       0x5b /opt/devkitpro/devkitARM/bin/../lib/gcc/arm-none-eabi/12.2.0/../../../../arm-none-eabi/lib/libg.a(lib_a-jp2uc.o)
 *fill*         0x0000000002038287        0x1 ff
 .rodata.a2     0x0000000002038288       0xbc /opt/devkitpro/devkitARM/bin/../lib/gcc/arm-none-eabi/12.2.0/../../../../arm-none-eabi/lib/libg.a(lib_a-jp2uc.o)
 .rodata.a1     0x0000000002038344       0xbc /opt/devkitpro/devkitARM/bin/../lib/gcc/arm-none-eabi/12.2.0/../../../../arm-none-eabi/lib/libg.a(lib_a-jp2uc.o)
 .rodata.categories
                0x0000000002038400     0x3528 /opt/devkitpro/devkitARM/bin/../lib/gcc/arm-none-eabi/12.2.0/../../../../arm-none-eabi/lib/libg.a(lib_a-categories.o)
 .rodata.AddDevice.str1.4
                0x000000000203b928        0x8 /opt/devkitpro/devkitARM/bin/../lib/gcc/arm-none-eabi/12.2.0/../../../../arm-none-eabi/lib/libsysbase.a(iosupport.o)
 .rodata.dotab_stdnull
                0x000000000203b930       0x70 /opt/devkitpro/devkitARM/bin/../lib/gcc/arm-none-eabi/12.2.0/../../../../arm-none-eabi/lib/libsysbase.a(iosupport.o)
                0x000000000203b930                dotab_stdnull
 *(EXCLUDE_FILE(*.twl*) .gnu.linkonce.r*)
                0x000000000203b9a0                . = ALIGN (0x4)

.ARM.extab
 *(.ARM.extab* .gnu.linkonce.armextab.*)
                0x000000000203b9a0                __exidx_start = .

ARM.exidx
 *(.ARM.exidx* .gnu.linkonce.armexidx.*)
                0x000000000203b9a0                __exidx_end = .
                0x000000000203b9a0                . = ALIGN (0x4)
                0x000000000203b9a0                PROVIDE (__preinit_array_start = .)

.preinit_array
 *(.preinit_array)
                0x000000000203b9a0                PROVIDE (__preinit_array_end = .)
                0x000000000203b9a0                PROVIDE (__init_array_start = .)

.init_array     0x000000000203b9a0        0x4
 *(SORT_BY_NAME(.init_array.*))
 *(.init_array)
 .init_array    0x000000000203b9a0        0x4 /opt/devkitpro/devkitARM/bin/../lib/gcc/arm-none-eabi/12.2.0/crtbegin.o
                0x000000000203b9a4                PROVIDE (__init_array_end = .)
                [!provide]                        PROVIDE (__fini_array_start = .)

.fini_array     0x000000000203b9a4        0x4
 *(.fini_array)
 .fini_array    0x000000000203b9a4        0x4 /opt/devkitpro/devkitARM/bin/../lib/gcc/arm-none-eabi/12.2.0/crtbegin.o
 *(SORT_BY_NAME(.fini_array.*))
                [!provide]                        PROVIDE (__fini_array_end = .)

.ctors          0x000000000203b9a8        0x0
 *crtbegin.o(.ctors)
 *(EXCLUDE_FILE(*crtend.o) .ctors)
 *(SORT_BY_NAME(.ctors.*))
 *(.ctors)
                0x000000000203b9a8                . = ALIGN (0x4)

.dtors          0x000000000203b9a8        0x0
 *crtbegin.o(.dtors)
 *(EXCLUDE_FILE(*crtend.o) .dtors)
 *(SORT_BY_NAME(.dtors.*))
 *(.dtors)
                0x000000000203b9a8                . = ALIGN (0x4)

.eh_frame       0x000000000203b9a8        0x4
 *(.eh_frame)
 .eh_frame      0x000000000203b9a8        0x0 /opt/devkitpro/devkitARM/bin/../lib/gcc/arm-none-eabi/12.2.0/crtbegin.o
 .eh_frame      0x000000000203b9a8        0x4 /opt/devkitpro/devkitARM/bin/../lib/gcc/arm-none-eabi/12.2.0/crtend.o
                0x000000000203b9ac                . = ALIGN (0x4)

.gcc_except_table
                0x000000000203b9ac        0x0
 *(.gcc_except_table)
                0x000000000203b9ac                . = ALIGN (0x4)

.jcr
 *(.jcr)

.got
 *(.got.plt)
 *(.got)
 *(.rel.got)

.ewram          0x000000000203b9ac        0x0
                0x000000000203b9ac                __ewram_start = ABSOLUTE (.)
 *(.ewram)
 *ewram.*(.text)
                0x000000000203b9ac                . = ALIGN (0x4)

.data           0x000000000203b9ac     0x282c
                0x000000000203b9ac                __data_start = ABSOLUTE (.)
 *(EXCLUDE_FILE(*.twl*) .data)
 .data          0x000000000203b9ac       0x18 ../menu/src/MainMenu.o
                0x000000000203b9ac                MainMenu_options
                0x000000000203b9b8                MainMenu_nextStateNavigation
 .data          0x000000000203b9c4       0x28 ../menu/src/Crawler.o
                0x000000000203b9c4                AbandonMission_Title
                0x000000000203b9c8                AbandonMission_count
                0x000000000203b9cc                AbandonMission_options
                0x000000000203b9e4                AbandonMission_navigation
 .data          0x000000000203b9ec        0x8 ../menu/src/HelpScreen.o
                0x000000000203b9ec                HelpScreen_optionsCount
                0x000000000203b9f0                HelpScreen_options
 .data          0x000000000203b9f4        0xc ../menu/src/BattleScreen.o
                0x000000000203b9f4                Battlecreen_optionsCount
                0x000000000203b9f8                BattleScreen_options
 .data          0x000000000203ba00        0x8 ../menu/src/CreditsScreen.o
                0x000000000203ba00                CreditsScreen_optionsCount
                0x000000000203ba04                CreditsScreen_options
 .data          0x000000000203ba08       0x19 ../menu/src/GameMenu.o
                0x000000000203ba08                GameMenu_optionsCount
                0x000000000203ba0c                GameMenu_EndGame_options
                0x000000000203ba14                GameMenu_EndGame_nextStateNavigation
                0x000000000203ba18                GameMenu_Story_options
                0x000000000203ba1c                inspectItem_options
                0x000000000203ba20                InspectItem_nextStateNavigation
 *fill*         0x000000000203ba21        0x3 ff
 .data          0x000000000203ba24        0xf ../base3d/src/Globals.o
                0x000000000203ba24                enable3DRendering
                0x000000000203ba28                isRunning
                0x000000000203ba2c                timeUntilNextState
                0x000000000203ba30                nextNavigationSelection
                0x000000000203ba31                menuStateToReturn
                0x000000000203ba32                currentGameMenuState
 *fill*         0x000000000203ba33        0x1 ff
 .data          0x000000000203ba34       0x10 ../GL1Common/RendererGL1.o
                0x000000000203ba34                needsToRedrawVisibleMeshes
                0x000000000203ba38                cursorX
                0x000000000203ba3c                cursorZ
                0x000000000203ba40                playerHeightTarget
 .data          0x000000000203ba44        0x1 ../base3d/src/Events.o
                0x000000000203ba44                shouldContinue
 *fill*         0x000000000203ba45        0x3 ff
 .data          0x000000000203ba48       0x1c ../menu/src/HackingScreen.o
                0x000000000203ba48                holdingDisk
                0x000000000203ba4c                functionNames
 .data          0x000000000203ba64        0x9 ../../core/src/Core.o
                0x000000000203ba64                roomCount
                0x000000000203ba68                defaultLogger
                0x000000000203ba6c                playerLocation
 *fill*         0x000000000203ba6d        0x3 ff
 .data          0x000000000203ba70       0x28 /opt/devkitpro/libnds/lib/libnds9.a(mpu_setup.o)
 *(EXCLUDE_FILE(*.twl*) .data.*)
 .data.ndsFileFD
                0x000000000203ba98        0x4 /opt/devkitpro/libnds/lib/libfilesystem.a(nitrofs.o)
 .data.nitroFSdevoptab
                0x000000000203ba9c       0x70 /opt/devkitpro/libnds/lib/libfilesystem.a(nitrofs.o)
                0x000000000203ba9c                nitroFSdevoptab
 .data.syspaths
                0x000000000203bb0c        0x8 /opt/devkitpro/libnds/lib/libfilesystem.a(nitrofs.o)
                0x000000000203bb0c                syspaths
 .data.glGlob   0x000000000203bb14        0x4 /opt/devkitpro/libnds/lib/libnds9.a(videoGL.o)
 .data.count    0x000000000203bb18        0x1 /opt/devkitpro/libnds/lib/libnds9.a(keys.o)
 .data.delay    0x000000000203bb19        0x1 /opt/devkitpro/libnds/lib/libnds9.a(keys.o)
 .data.repeat   0x000000000203bb1a        0x1 /opt/devkitpro/libnds/lib/libnds9.a(keys.o)
 *fill*         0x000000000203bb1b        0x1 ff
 .data.fifo_buffer_free
                0x000000000203bb1c        0x4 /opt/devkitpro/libnds/lib/libnds9.a(fifosystem.o)
                0x000000000203bb1c                fifo_buffer_free
 .data.fifo_freewords
                0x000000000203bb20        0x4 /opt/devkitpro/libnds/lib/libnds9.a(fifosystem.o)
                0x000000000203bb20                fifo_freewords
 .data.fifo_receive_queue
                0x000000000203bb24        0x4 /opt/devkitpro/libnds/lib/libnds9.a(fifosystem.o)
                0x000000000203bb24                fifo_receive_queue
 .data.fifo_send_queue
                0x000000000203bb28        0x4 /opt/devkitpro/libnds/lib/libnds9.a(fifosystem.o)
                0x000000000203bb28                fifo_send_queue
 .data._impure_ptr
                0x000000000203bb2c        0x4 /opt/devkitpro/devkitARM/bin/../lib/gcc/arm-none-eabi/12.2.0/../../../../arm-none-eabi/lib/libg.a(lib_a-impure.o)
                0x000000000203bb2c                _impure_ptr
 .data.impure_data
                0x000000000203bb30      0x460 /opt/devkitpro/devkitARM/bin/../lib/gcc/arm-none-eabi/12.2.0/../../../../arm-none-eabi/lib/libg.a(lib_a-impure.o)
 .data.__global_locale
                0x000000000203bf90      0x16c /opt/devkitpro/devkitARM/bin/../lib/gcc/arm-none-eabi/12.2.0/../../../../arm-none-eabi/lib/libg.a(lib_a-locale.o)
                0x000000000203bf90                __global_locale
 .data.__malloc_sbrk_base
                0x000000000203c0fc        0x4 /opt/devkitpro/devkitARM/bin/../lib/gcc/arm-none-eabi/12.2.0/../../../../arm-none-eabi/lib/libg.a(lib_a-mallocr.o)
                0x000000000203c0fc                __malloc_sbrk_base
 .data.__malloc_trim_threshold
                0x000000000203c100        0x4 /opt/devkitpro/devkitARM/bin/../lib/gcc/arm-none-eabi/12.2.0/../../../../arm-none-eabi/lib/libg.a(lib_a-mallocr.o)
                0x000000000203c100                __malloc_trim_threshold
 *fill*         0x000000000203c104        0x4 ff
 .data.__malloc_av_
                0x000000000203c108      0x408 /opt/devkitpro/devkitARM/bin/../lib/gcc/arm-none-eabi/12.2.0/../../../../arm-none-eabi/lib/libg.a(lib_a-mallocr.o)
                0x000000000203c108                __malloc_av_
 .data._tzname  0x000000000203c510        0x8 /opt/devkitpro/devkitARM/bin/../lib/gcc/arm-none-eabi/12.2.0/../../../../arm-none-eabi/lib/libg.a(lib_a-tzvars.o)
                0x000000000203c510                _tzname
 .data.tzinfo   0x000000000203c518       0x58 /opt/devkitpro/devkitARM/bin/../lib/gcc/arm-none-eabi/12.2.0/../../../../arm-none-eabi/lib/libg.a(lib_a-gettzinfo.o)
 .data.environ  0x000000000203c570        0x4 /opt/devkitpro/devkitARM/bin/../lib/gcc/arm-none-eabi/12.2.0/../../../../arm-none-eabi/lib/libg.a(lib_a-environ.o)
                0x000000000203c570                environ
 .data.caseconv_table
                0x000000000203c574      0x7b0 /opt/devkitpro/devkitARM/bin/../lib/gcc/arm-none-eabi/12.2.0/../../../../arm-none-eabi/lib/libg.a(lib_a-towctrans_l.o)
 .data.devoptab_list
                0x000000000203cd24       0x8c /opt/devkitpro/devkitARM/bin/../lib/gcc/arm-none-eabi/12.2.0/../../../../arm-none-eabi/lib/libsysbase.a(iosupport.o)
                0x000000000203cd24                devoptab_list
 .data.defaultDevice
                0x000000000203cdb0        0x4 /opt/devkitpro/devkitARM/bin/../lib/gcc/arm-none-eabi/12.2.0/../../../../arm-none-eabi/lib/libsysbase.a(iosupport.o)
 .data._current_working_directory
                0x000000000203cdb4      0x400 /opt/devkitpro/devkitARM/bin/../lib/gcc/arm-none-eabi/12.2.0/../../../../arm-none-eabi/lib/libsysbase.a(chdir.o)
 .data.handles  0x000000000203d1b4     0x1000 /opt/devkitpro/devkitARM/bin/../lib/gcc/arm-none-eabi/12.2.0/../../../../arm-none-eabi/lib/libsysbase.a(handle_manager.o)
 .data.__stderr_handle
                0x000000000203e1b4        0xc /opt/devkitpro/devkitARM/bin/../lib/gcc/arm-none-eabi/12.2.0/../../../../arm-none-eabi/lib/libsysbase.a(handle_manager.o)
 .data.__stdout_handle
                0x000000000203e1c0        0xc /opt/devkitpro/devkitARM/bin/../lib/gcc/arm-none-eabi/12.2.0/../../../../arm-none-eabi/lib/libsysbase.a(handle_manager.o)
 .data.__stdin_handle
                0x000000000203e1cc        0xc /opt/devkitpro/devkitARM/bin/../lib/gcc/arm-none-eabi/12.2.0/../../../../arm-none-eabi/lib/libsysbase.a(handle_manager.o)
 *(EXCLUDE_FILE(*.twl*) .gnu.linkonce.d*)
                0x000000000203e1d8                . = ALIGN (0x4)
                0x000000000203e1d8                __data_end = ABSOLUTE (.)
                0x000000000203e1d8                __bss_vma = .

.igot.plt       0x000000000203e1d8        0x0
 .igot.plt      0x000000000203e1d8        0x0 /opt/devkitpro/devkitARM/bin/../lib/gcc/arm-none-eabi/12.2.0/../../../../arm-none-eabi/lib/ds_arm9_crt0.o

.dtcm           0x0000000002ff0000        0x0 load address 0x000000000203e1d8
                0x000000000203e1d8                __dtcm_lma = LOADADDR (.dtcm)
                0x0000000002ff0000                __dtcm_start = ABSOLUTE (.)
 *(.dtcm)
 *(.dtcm.*)
                0x0000000002ff0000                . = ALIGN (0x4)
                0x0000000002ff0000                __dtcm_end = ABSOLUTE (.)

.itcm           0x0000000001000100      0x194 load address 0x000000000203e1d8
                0x000000000203e1d8                __itcm_lma = LOADADDR (.itcm)
                0x0000000001000100                __itcm_start = ABSOLUTE (.)
 *(.itcm)
 .itcm          0x0000000001000100       0xc8 /opt/devkitpro/libnds/lib/libnds9.a(interrupts.o)
                0x0000000001000100                irqTable
 .itcm          0x00000000010001c8       0xcc /opt/devkitpro/libnds/lib/libnds9.a(interruptDispatcher.o)
                0x00000000010001c8                IntrMain
 *.itcm*(.text .stub .text.*)
                0x0000000001000294                . = ALIGN (0x4)
                0x0000000001000294                __itcm_end = ABSOLUTE (.)

.vectors        0x0000000001000000        0x0 load address 0x000000000203e36c
                0x000000000203e36c                __vectors_lma = LOADADDR (.vectors)
                0x0000000001000000                __vectors_start = ABSOLUTE (.)
 *(.vectors .vectors.*)
                0x0000000001000000                . = ALIGN (0x4)
                0x0000000001000000                __vectors_end = ABSOLUTE (.)

.sbss           0x0000000002ff0000        0x0
                0x0000000002ff0000                __sbss_start = ABSOLUTE (.)
                0x0000000002ff0000                __sbss_start__ = ABSOLUTE (.)
 *(.sbss)
                0x0000000002ff0000                . = ALIGN (0x4)
                0x0000000002ff0000                __sbss_end = ABSOLUTE (.)

.bss            0x000000000203e1d8    0x1645c
                0x000000000203e1d8                __bss_start = ABSOLUTE (.)
                0x000000000203e1d8                __bss_start__ = ABSOLUTE (.)
 *(EXCLUDE_FILE(*.twl*) .dynbss)
 *(EXCLUDE_FILE(*.twl*) .gnu.linkonce.b*)
 *(EXCLUDE_FILE(*.twl*) .bss*)
 .bss.completed.1
                0x000000000203e1d8        0x1 /opt/devkitpro/devkitARM/bin/../lib/gcc/arm-none-eabi/12.2.0/crtbegin.o
 *fill*         0x000000000203e1d9        0x3 
 .bss.object.0  0x000000000203e1dc       0x18 /opt/devkitpro/devkitARM/bin/../lib/gcc/arm-none-eabi/12.2.0/crtbegin.o
 .bss           0x000000000203e1f4       0xac ../menu/src/MainMenu.o
                0x000000000203e1f4                logoBitmap
                0x000000000203e264                logo2Bitmap
 .bss           0x000000000203e2a0       0x18 ../menu/src/Crawler.o
                0x000000000203e2a0                kCameraYDeltaPlayerDeath
                0x000000000203e2a4                kCameraYSpeedPlayerDeath
                0x000000000203e2a8                showPromptToAbandonMission
                0x000000000203e2ac                thisMissionName
                0x000000000203e2b0                thisMissionNameLen
                0x000000000203e2b4                needToRedrawHUD
 .bss           0x000000000203e2b8        0x1 ../menu/src/HelpScreen.o
                0x000000000203e2b8                HelpScreen_nextStateNavigation
 *fill*         0x000000000203e2b9        0x3 
 .bss           0x000000000203e2bc        0x4 ../menu/src/BattleScreen.o
                0x000000000203e2bc                enemySprite
 .bss           0x000000000203e2c0       0x14 ../menu/src/CreditsScreen.o
                0x000000000203e2c0                monty
                0x000000000203e2d0                CreditsScreen_nextStateNavigation
 .bss           0x000000000203e2d4       0x18 ../menu/src/GameMenu.o
                0x000000000203e2d4                GameMenu_StateTitle
                0x000000000203e2d8                drawFilter
                0x000000000203e2dc                GameMenu_options
                0x000000000203e2e0                GameMenu_nextStateNavigation
                0x000000000203e2e4                GameMenu_Story_nextStateNavigation
                0x000000000203e2e8                featuredBitmap
 .bss           0x000000000203e2ec       0x10 ../menu/src/Main.o
                0x000000000203e2ec                timeEllapsed
                0x000000000203e2f0                end_clock
                0x000000000203e2f4                prev
                0x000000000203e2f8                start_clock
 .bss           0x000000000203e2fc      0x400 ../menu/src/Engine.o
                0x000000000203e2fc                unloadStateCallback
                0x000000000203e300                initStateCallback
                0x000000000203e304                initialPaintCallback
                0x000000000203e308                repaintCallback
                0x000000000203e30c                tickCallback
                0x000000000203e310                soundDriver
                0x000000000203e314                textBuffer
 .bss           0x000000000203e6fc        0x4 ../base3d/src/nitro/NitroGLRenderer.o
                0x000000000203e6fc                cooldown
 .bss           0x000000000203e700       0x18 ../base3d/src/Globals.o
                0x000000000203e700                currentSelectedItem
                0x000000000203e704                mainText
                0x000000000203e708                biggestOption
                0x000000000203e70c                currentPresentationState
                0x000000000203e710                cursorPosition
                0x000000000203e714                currentBackgroundBitmap
 .bss           0x000000000203e718    0x10000 ../GL1Common/LoadBitmapGL1.o
                0x000000000203e718                textureBuffer
 .bss           0x000000000204e718     0x2dfd ../GL1Common/RendererGL1.o
                0x000000000204e718                messageLogBuffer
                0x000000000204e818                messageLogBufferCoolDown
                0x000000000204e81c                visibilityCached
                0x000000000204e820                tileProperties
                0x000000000204ec20                occluders
                0x000000000204f020                colliders
                0x000000000204f420                texturesUsed
                0x000000000204f421                cameraDirection
                0x000000000204f424                hasSnapshot
                0x000000000204f428                yCameraOffset
                0x000000000204f42c                zCameraOffset
                0x000000000204f430                xCameraOffset
                0x000000000204f434                cameraPosition
                0x000000000204f438                mItems
                0x000000000204f838                mCamera
                0x000000000204f844                visMap
                0x000000000204fc44                gameTicks
                0x000000000204fc48                mBufferedCommand
                0x000000000204fc4c                playerHeightChangeRate
                0x000000000204fc50                revealed
                0x0000000002050050                itemSprites
                0x00000000020500ec                distances
                0x00000000020510ec                mapTopLevel
                0x000000000205110c                turnStep
                0x0000000002051110                turnTarget
                0x0000000002051114                linesOfSight
                0x0000000002051514                enableSmoothMovement
 *fill*         0x0000000002051515        0x3 
 .bss           0x0000000002051518        0x4 ../GL1Common/Renderer_RasterizationGL1.o
                0x0000000002051518                defaultFont
 .bss           0x000000000205151c      0x118 ../GL1Common/Renderer_TesselationGL1.o
                0x000000000205151c                usedTexture
                0x0000000002051520                playerHeight
                0x0000000002051524                walkingBias
                0x0000000002051528                nativeTextures
                0x0000000002051628                cameraOffset
 .bss           0x0000000002051634      0x100 ../../common/src/PackedFileReader.o
                0x0000000002051634                mDataPath
 .bss           0x0000000002051734     0x100f ../base3d/src/Events.o
                0x0000000002051734                items
                0x0000000002051b34                actorsInMap
                0x0000000002051f34                effects
                0x0000000002052334                x
                0x0000000002052338                z
                0x000000000205233c                rotation
                0x0000000002052340                elements
                0x0000000002052740                actor
 *fill*         0x0000000002052743        0x1 
 .bss           0x0000000002052744      0x51c ../base3d/src/Dungeon.o
                0x0000000002052744                collisionMap
                0x0000000002052844                map
                0x0000000002052c44                gameSnapshot
                0x0000000002052c54                playerCrawler
                0x0000000002052c58                focusItemName
                0x0000000002052c5c                enteredThru
 .bss           0x0000000002052c60       0x28 ../menu/src/HackingScreen.o
                0x0000000002052c60                pins
                0x0000000002052c80                pinTop
                0x0000000002052c84                wasSmoothMovementPreviouslyEnabled
 .bss           0x0000000002052c88        0x1 ../../core/src/Derelict.o
                0x0000000002052c88                accessGrantedToSafe
 *fill*         0x0000000002052c89        0x3 
 .bss           0x0000000002052c8c      0x840 ../../core/src/Core.o
                0x0000000002052c8c                errorHandlerCallback
                0x0000000002052c90                itemsCount
                0x0000000002052c94                item
                0x00000000020530d8                rooms
                0x00000000020532b8                roomObjectHeads
                0x0000000002053378                playerPosition
                0x000000000205337c                gameStatus
                0x0000000002053380                collectedObject
                0x0000000002053384                objectNodes
                0x00000000020534bc                playerRank
                0x00000000020534c0                playerDirection
                0x00000000020534c4                collectedObjectHead
 .bss.cardRead  0x00000000020534cc        0x1 /opt/devkitpro/libnds/lib/libfilesystem.a(nitrofs.o)
 *fill*         0x00000000020534cd        0x1 
 .bss.chdirpathid
                0x00000000020534ce        0x2 /opt/devkitpro/libnds/lib/libfilesystem.a(nitrofs.o)
 .bss.fatOffset
                0x00000000020534d0        0x4 /opt/devkitpro/libnds/lib/libfilesystem.a(nitrofs.o)
 .bss.fntOffset
                0x00000000020534d4        0x4 /opt/devkitpro/libnds/lib/libfilesystem.a(nitrofs.o)
 .bss.ndsFileLastpos
                0x00000000020534d8        0x4 /opt/devkitpro/libnds/lib/libfilesystem.a(nitrofs.o)
 .bss.temp.0    0x00000000020534dc      0x200 /opt/devkitpro/libnds/lib/libfilesystem.a(nitrofs.o)
 .bss.accessCounter
                0x00000000020536dc        0x4 /opt/devkitpro/libnds/lib/libfat.a(cache.o)
 .bss.glGlobalData
                0x00000000020536e0       0x54 /opt/devkitpro/libnds/lib/libnds9.a(videoGL.o)
                0x00000000020536e0                glGlobalData
 .bss.keys      0x0000000002053734        0x2 /opt/devkitpro/libnds/lib/libnds9.a(keys.o)
 .bss.keysold   0x0000000002053736        0x2 /opt/devkitpro/libnds/lib/libnds9.a(keys.o)
 .bss.keysrepeat
                0x0000000002053738        0x2 /opt/devkitpro/libnds/lib/libnds9.a(keys.o)
 .bss.__dsimode
                0x000000000205373a        0x1 /opt/devkitpro/libnds/lib/libnds9.a(initSystem.o)
                0x000000000205373a                __dsimode
 *fill*         0x000000000205373b        0x1 
 .bss.punixTime
                0x000000000205373c        0x4 /opt/devkitpro/libnds/lib/libnds9.a(initSystem.o)
                0x000000000205373c                punixTime
 .bss.fifo_address_data
                0x0000000002053740       0x40 /opt/devkitpro/libnds/lib/libnds9.a(fifosystem.o)
                0x0000000002053740                fifo_address_data
 .bss.fifo_address_func
                0x0000000002053780       0x40 /opt/devkitpro/libnds/lib/libnds9.a(fifosystem.o)
                0x0000000002053780                fifo_address_func
 .bss.fifo_address_queue
                0x00000000020537c0       0x40 /opt/devkitpro/libnds/lib/libnds9.a(fifosystem.o)
                0x00000000020537c0                fifo_address_queue
 .bss.fifo_buffer
                0x0000000002053800      0x800 /opt/devkitpro/libnds/lib/libnds9.a(fifosystem.o)
                0x0000000002053800                fifo_buffer
 .bss.fifo_data_queue
                0x0000000002054000       0x40 /opt/devkitpro/libnds/lib/libnds9.a(fifosystem.o)
                0x0000000002054000                fifo_data_queue
 .bss.fifo_datamsg_data
                0x0000000002054040       0x40 /opt/devkitpro/libnds/lib/libnds9.a(fifosystem.o)
                0x0000000002054040                fifo_datamsg_data
 .bss.fifo_datamsg_func
                0x0000000002054080       0x40 /opt/devkitpro/libnds/lib/libnds9.a(fifosystem.o)
                0x0000000002054080                fifo_datamsg_func
 .bss.fifo_value32_data
                0x00000000020540c0       0x40 /opt/devkitpro/libnds/lib/libnds9.a(fifosystem.o)
                0x00000000020540c0                fifo_value32_data
 .bss.fifo_value32_func
                0x0000000002054100       0x40 /opt/devkitpro/libnds/lib/libnds9.a(fifosystem.o)
                0x0000000002054100                fifo_value32_func
 .bss.fifo_value32_queue
                0x0000000002054140       0x40 /opt/devkitpro/libnds/lib/libnds9.a(fifosystem.o)
                0x0000000002054140                fifo_value32_queue
 .bss.processing
                0x0000000002054180        0x4 /opt/devkitpro/libnds/lib/libnds9.a(fifosystem.o)
                0x0000000002054180                processing
 .bss.SDcallback
                0x0000000002054184        0x4 /opt/devkitpro/libnds/lib/libnds9.a(system.o)
 .bss.__sinit_recursive_mutex
                0x0000000002054188        0xc /opt/devkitpro/devkitARM/bin/../lib/gcc/arm-none-eabi/12.2.0/../../../../arm-none-eabi/lib/libg.a(lib_a-findfp.o)
 .bss.__sfp_recursive_mutex
                0x0000000002054194        0xc /opt/devkitpro/devkitARM/bin/../lib/gcc/arm-none-eabi/12.2.0/../../../../arm-none-eabi/lib/libg.a(lib_a-findfp.o)
 .bss.__malloc_current_mallinfo
                0x00000000020541a0       0x28 /opt/devkitpro/devkitARM/bin/../lib/gcc/arm-none-eabi/12.2.0/../../../../arm-none-eabi/lib/libg.a(lib_a-mallocr.o)
                0x00000000020541a0                __malloc_current_mallinfo
 .bss.__malloc_max_total_mem
                0x00000000020541c8        0x4 /opt/devkitpro/devkitARM/bin/../lib/gcc/arm-none-eabi/12.2.0/../../../../arm-none-eabi/lib/libg.a(lib_a-mallocr.o)
                0x00000000020541c8                __malloc_max_total_mem
 .bss.__malloc_max_sbrked_mem
                0x00000000020541cc        0x4 /opt/devkitpro/devkitARM/bin/../lib/gcc/arm-none-eabi/12.2.0/../../../../arm-none-eabi/lib/libg.a(lib_a-mallocr.o)
                0x00000000020541cc                __malloc_max_sbrked_mem
 .bss.__malloc_top_pad
                0x00000000020541d0        0x4 /opt/devkitpro/devkitARM/bin/../lib/gcc/arm-none-eabi/12.2.0/../../../../arm-none-eabi/lib/libg.a(lib_a-mallocr.o)
                0x00000000020541d0                __malloc_top_pad
 .bss.__malloc_recursive_mutex
                0x00000000020541d4        0xc /opt/devkitpro/devkitARM/bin/../lib/gcc/arm-none-eabi/12.2.0/../../../../arm-none-eabi/lib/libg.a(lib_a-mlock.o)
 .bss.__tz_mutex
                0x00000000020541e0        0x4 /opt/devkitpro/devkitARM/bin/../lib/gcc/arm-none-eabi/12.2.0/../../../../arm-none-eabi/lib/libg.a(lib_a-tzlock.o)
 .bss.prev_tzenv
                0x00000000020541e4        0x4 /opt/devkitpro/devkitARM/bin/../lib/gcc/arm-none-eabi/12.2.0/../../../../arm-none-eabi/lib/libg.a(lib_a-tzset_r.o)
 .bss.__tzname_dst
                0x00000000020541e8        0xb /opt/devkitpro/devkitARM/bin/../lib/gcc/arm-none-eabi/12.2.0/../../../../arm-none-eabi/lib/libg.a(lib_a-tzset_r.o)
 *fill*         0x00000000020541f3        0x1 
 .bss.__tzname_std
                0x00000000020541f4        0xb /opt/devkitpro/devkitARM/bin/../lib/gcc/arm-none-eabi/12.2.0/../../../../arm-none-eabi/lib/libg.a(lib_a-tzset_r.o)
 *fill*         0x00000000020541ff        0x1 
 .bss._timezone
                0x0000000002054200        0x4 /opt/devkitpro/devkitARM/bin/../lib/gcc/arm-none-eabi/12.2.0/../../../../arm-none-eabi/lib/libg.a(lib_a-tzvars.o)
                0x0000000002054200                _timezone
 .bss._daylight
                0x0000000002054204        0x4 /opt/devkitpro/devkitARM/bin/../lib/gcc/arm-none-eabi/12.2.0/../../../../arm-none-eabi/lib/libg.a(lib_a-tzvars.o)
                0x0000000002054204                _daylight
 .bss.__atexit_recursive_mutex
                0x0000000002054208        0xc /opt/devkitpro/devkitARM/bin/../lib/gcc/arm-none-eabi/12.2.0/../../../../arm-none-eabi/lib/libg.a(lib_a-__call_atexit.o)
                0x0000000002054208                __atexit_recursive_mutex
 .bss.initial_env
                0x0000000002054214        0x4 /opt/devkitpro/devkitARM/bin/../lib/gcc/arm-none-eabi/12.2.0/../../../../arm-none-eabi/lib/libg.a(lib_a-environ.o)
 .bss.__env_recursive_mutex
                0x0000000002054218        0xc /opt/devkitpro/devkitARM/bin/../lib/gcc/arm-none-eabi/12.2.0/../../../../arm-none-eabi/lib/libg.a(lib_a-envlock.o)
 .bss.heap_start.0
                0x0000000002054224        0x4 /opt/devkitpro/devkitARM/bin/../lib/gcc/arm-none-eabi/12.2.0/../../../../arm-none-eabi/lib/libsysbase.a(sbrk.o)
 .bss.fake_heap_start
                0x0000000002054228        0x4 /opt/devkitpro/devkitARM/bin/../lib/gcc/arm-none-eabi/12.2.0/../../../../arm-none-eabi/lib/libsysbase.a(malloc_vars.o)
                0x0000000002054228                fake_heap_start
 .bss.fake_heap_end
                0x000000000205422c        0x4 /opt/devkitpro/devkitARM/bin/../lib/gcc/arm-none-eabi/12.2.0/../../../../arm-none-eabi/lib/libsysbase.a(malloc_vars.o)
                0x000000000205422c                fake_heap_end
 .bss.temp_cwd  0x0000000002054230      0x400 /opt/devkitpro/devkitARM/bin/../lib/gcc/arm-none-eabi/12.2.0/../../../../arm-none-eabi/lib/libsysbase.a(chdir.o)
 .bss.__hndl_lock
                0x0000000002054630        0x4 /opt/devkitpro/devkitARM/bin/../lib/gcc/arm-none-eabi/12.2.0/../../../../arm-none-eabi/lib/libsysbase.a(handle_manager.o)
 *(EXCLUDE_FILE(*.twl*) COMMON)
                0x0000000002054634                . = ALIGN (0x4)
                0x0000000002054634                __bss_end__ = ABSOLUTE (.)
                0x0000000002054634                __end__ = ABSOLUTE (.)

.twl            0x0000000002054634      0x15c load address 0x0000000002400000
                0x0000000002400000                __arm9i_lma__ = LOADADDR (.twl)
                0x0000000002054634                __arm9i_start__ = ABSOLUTE (.)
 *(.twl)
 *.twl*(.text .stub .text.* .gnu.linkonce.t.*)
 .text.sdio_ClearStatus
                0x0000000002054634        0x4 /opt/devkitpro/libnds/lib/libnds9.a(sd.twl.o)
                0x0000000002054634                sdio_ClearStatus
 .text.sdio_Startup
                0x0000000002054638       0x50 /opt/devkitpro/libnds/lib/libnds9.a(sd.twl.o)
                0x0000000002054638                sdio_Startup
 .text.sdio_Shutdown
                0x0000000002054688        0x4 /opt/devkitpro/libnds/lib/libnds9.a(sd.twl.o)
                0x0000000002054688                sdio_Shutdown
 .text.sdio_IsInserted
                0x000000000205468c       0x30 /opt/devkitpro/libnds/lib/libnds9.a(sd.twl.o)
                0x000000000205468c                sdio_IsInserted
 .text.sdio_ReadSectors
                0x00000000020546bc       0x50 /opt/devkitpro/libnds/lib/libnds9.a(sd.twl.o)
                0x00000000020546bc                sdio_ReadSectors
 .text.sdio_WriteSectors
                0x000000000205470c       0x50 /opt/devkitpro/libnds/lib/libnds9.a(sd.twl.o)
                0x000000000205470c                sdio_WriteSectors
 *fill*         0x000000000205475c        0x4 
 .text.sdio_WriteSectors.__stub
                0x0000000002054760       0x10 linker stubs
 *.twl*(.rodata)
 *.twl*(.roda)
 *.twl*(.rodata.*)
 .rodata.__io_dsisd
                0x0000000002054770       0x20 /opt/devkitpro/libnds/lib/libnds9.a(sd.twl.o)
                0x0000000002054770                __io_dsisd
 *.twl*(.data)
 *.twl*(.data.*)
 *.twl*(.gnu.linkonce.d*)
                0x0000000002054790                __arm9i_end__ = ABSOLUTE (.)

.rel.dyn        0x0000000002054790        0x0 load address 0x000000000240015c
 .rel.iplt      0x0000000002054790        0x0 /opt/devkitpro/devkitARM/bin/../lib/gcc/arm-none-eabi/12.2.0/../../../../arm-none-eabi/lib/ds_arm9_crt0.o

.twl_bss        0x0000000002054790        0x0
                0x0000000002054790                __twl_bss_start__ = ABSOLUTE (.)
 *(.twl_bss)
 *.twl*(.dynbss)
 *.twl*(.gnu.linkonce.b*)
 *.twl*(.bss*)
 *.twl*(COMMON)
                0x0000000002054790                . = ALIGN (0x4)
                0x0000000002054790                __twl_bss_end__ = ABSOLUTE (.)
                0x0000000002054790                __twl_end__ = ABSOLUTE (.)

.stab
 *(.stab)

.stabstr
 *(.stabstr)

.stab.excl
 *(.stab.excl)

.stab.exclstr
 *(.stab.exclstr)

.stab.index
 *(.stab.index)

.stab.indexstr
 *(.stab.indexstr)

.comment        0x0000000000000000       0x69
 *(.comment)
 .comment       0x0000000000000000       0x23 /opt/devkitpro/devkitARM/bin/../lib/gcc/arm-none-eabi/12.2.0/crtbegin.o
                                         0x24 (size before relaxing)
 .comment       0x0000000000000023       0x24 ../menu/src/MainMenu.o
 .comment       0x0000000000000023       0x24 ../menu/src/Crawler.o
 .comment       0x0000000000000023       0x24 ../menu/src/HelpScreen.o
 .comment       0x0000000000000023       0x24 ../menu/src/BattleScreen.o
 .comment       0x0000000000000023       0x24 ../menu/src/CreditsScreen.o
 .comment       0x0000000000000023       0x24 ../menu/src/GameMenu.o
 .comment       0x0000000000000023       0x24 ../menu/src/Main.o
 .comment       0x0000000000000023       0x24 ../menu/src/Engine.o
 .comment       0x0000000000000023       0x24 ../base3d/src/nitro/NitroGLRenderer.o
 .comment       0x0000000000000023       0x24 ../base3d/src/Globals.o
 .comment       0x0000000000000023       0x24 ../base3d/src/CTile3DProperties.o
 .comment       0x0000000000000023       0x24 ../GL1Common/LoadBitmapGL1.o
 .comment       0x0000000000000023       0x24 ../GL1Common/RendererGL1.o
 .comment       0x0000000000000023       0x24 ../GL1Common/Renderer_RasterizationGL1.o
 .comment       0x0000000000000023       0x24 ../GL1Common/Renderer_TesselationGL1.o
 .comment       0x0000000000000023       0x24 ../base3d/src/VisibilityStrategy.o
 .comment       0x0000000000000023       0x24 ../../common/src/Vec.o
 .comment       0x0000000000000023       0x24 ../../common/src/Common.o
 .comment       0x0000000000000023       0x24 ../../common/src/MapWithCharKey.o
 .comment       0x0000000000000023       0x24 ../../common/src/PackedFileReader.o
 .comment       0x0000000000000023       0x24 ../base3d/src/Events.o
 .comment       0x0000000000000023       0x24 ../base3d/src/EDirection_Utils.o
 .comment       0x0000000000000023       0x24 ../SoundSystem/NullMusic.o
 .comment       0x0000000000000023       0x24 ../base3d/src/Dungeon.o
 .comment       0x0000000000000023       0x24 ../menu/src/UI.o
 .comment       0x0000000000000023       0x24 ../menu/src/HackingScreen.o
 .comment       0x0000000000000023       0x24 ../../core/src/Derelict.o
 .comment       0x0000000000000023       0x24 ../../core/src/Core.o
 .comment       0x0000000000000023       0x24 ../../core/src/Parser.o
 .comment       0x0000000000000023       0x23 /opt/devkitpro/libnds/lib/libfilesystem.a(nitrofs.o)
                                         0x24 (size before relaxing)
 .comment       0x0000000000000046       0x24 /opt/devkitpro/libnds/lib/libfat.a(libfat.o)
 .comment       0x0000000000000046       0x24 /opt/devkitpro/libnds/lib/libfat.a(disc.o)
 .comment       0x0000000000000046       0x24 /opt/devkitpro/libnds/lib/libfat.a(fatfile.o)
 .comment       0x0000000000000046       0x24 /opt/devkitpro/libnds/lib/libfat.a(cache.o)
 .comment       0x0000000000000046       0x24 /opt/devkitpro/libnds/lib/libfat.a(fatdir.o)
 .comment       0x0000000000000046       0x24 /opt/devkitpro/libnds/lib/libfat.a(directory.o)
 .comment       0x0000000000000046       0x24 /opt/devkitpro/libnds/lib/libfat.a(partition.o)
 .comment       0x0000000000000046       0x24 /opt/devkitpro/libnds/lib/libfat.a(lock.o)
 .comment       0x0000000000000046       0x24 /opt/devkitpro/libnds/lib/libfat.a(filetime.o)
 .comment       0x0000000000000046       0x24 /opt/devkitpro/libnds/lib/libfat.a(file_allocation_table.o)
 .comment       0x0000000000000046       0x23 /opt/devkitpro/libnds/lib/libnds9.a(dynamicArray.o)
                                         0x24 (size before relaxing)
 .comment       0x0000000000000069       0x24 /opt/devkitpro/libnds/lib/libnds9.a(videoGL.o)
 .comment       0x0000000000000069       0x24 /opt/devkitpro/libnds/lib/libnds9.a(keys.o)
 .comment       0x0000000000000069       0x24 /opt/devkitpro/libnds/lib/libnds9.a(dldi.o)
 .comment       0x0000000000000069       0x24 /opt/devkitpro/libnds/lib/libnds9.a(initSystem.o)
 .comment       0x0000000000000069       0x24 /opt/devkitpro/libnds/lib/libnds9.a(securearea.o)
 .comment       0x0000000000000069       0x24 /opt/devkitpro/libnds/lib/libnds9.a(interrupts.o)
 .comment       0x0000000000000069       0x24 /opt/devkitpro/libnds/lib/libnds9.a(libnds_exit.arm.o)
 .comment       0x0000000000000069       0x24 /opt/devkitpro/libnds/lib/libnds9.a(card.o)
 .comment       0x0000000000000069       0x24 /opt/devkitpro/libnds/lib/libnds9.a(fifosystem.o)
 .comment       0x0000000000000069       0x24 /opt/devkitpro/libnds/lib/libnds9.a(video.o)
 .comment       0x0000000000000069       0x24 /opt/devkitpro/libnds/lib/libnds9.a(system.o)
 .comment       0x0000000000000069       0x24 /opt/devkitpro/libnds/lib/libnds9.a(sd.twl.o)
 .comment       0x0000000000000069       0x24 /opt/devkitpro/devkitARM/bin/../lib/gcc/arm-none-eabi/12.2.0/libgcc.a(_muldi3.o)
 .comment       0x0000000000000069       0x24 /opt/devkitpro/devkitARM/bin/../lib/gcc/arm-none-eabi/12.2.0/libgcc.a(_udivmoddi4.o)
 .comment       0x0000000000000069       0x24 /opt/devkitpro/devkitARM/bin/../lib/gcc/arm-none-eabi/12.2.0/../../../../arm-none-eabi/lib/libg.a(lib_a-assert.o)
 .comment       0x0000000000000069       0x24 /opt/devkitpro/devkitARM/bin/../lib/gcc/arm-none-eabi/12.2.0/../../../../arm-none-eabi/lib/libg.a(lib_a-atoi.o)
 .comment       0x0000000000000069       0x24 /opt/devkitpro/devkitARM/bin/../lib/gcc/arm-none-eabi/12.2.0/../../../../arm-none-eabi/lib/libg.a(lib_a-calloc.o)
 .comment       0x0000000000000069       0x24 /opt/devkitpro/devkitARM/bin/../lib/gcc/arm-none-eabi/12.2.0/../../../../arm-none-eabi/lib/libg.a(lib_a-callocr.o)
 .comment       0x0000000000000069       0x24 /opt/devkitpro/devkitARM/bin/../lib/gcc/arm-none-eabi/12.2.0/../../../../arm-none-eabi/lib/libg.a(lib_a-ctype_.o)
 .comment       0x0000000000000069       0x24 /opt/devkitpro/devkitARM/bin/../lib/gcc/arm-none-eabi/12.2.0/../../../../arm-none-eabi/lib/libg.a(lib_a-errno.o)
 .comment       0x0000000000000069       0x24 /opt/devkitpro/devkitARM/bin/../lib/gcc/arm-none-eabi/12.2.0/../../../../arm-none-eabi/lib/libg.a(lib_a-exit.o)
 .comment       0x0000000000000069       0x24 /opt/devkitpro/devkitARM/bin/../lib/gcc/arm-none-eabi/12.2.0/../../../../arm-none-eabi/lib/libg.a(lib_a-fclose.o)
 .comment       0x0000000000000069       0x24 /opt/devkitpro/devkitARM/bin/../lib/gcc/arm-none-eabi/12.2.0/../../../../arm-none-eabi/lib/libg.a(lib_a-fflush.o)
 .comment       0x0000000000000069       0x24 /opt/devkitpro/devkitARM/bin/../lib/gcc/arm-none-eabi/12.2.0/../../../../arm-none-eabi/lib/libg.a(lib_a-findfp.o)
 .comment       0x0000000000000069       0x24 /opt/devkitpro/devkitARM/bin/../lib/gcc/arm-none-eabi/12.2.0/../../../../arm-none-eabi/lib/libg.a(lib_a-fiprintf.o)
 .comment       0x0000000000000069       0x24 /opt/devkitpro/devkitARM/bin/../lib/gcc/arm-none-eabi/12.2.0/../../../../arm-none-eabi/lib/libg.a(lib_a-fopen.o)
 .comment       0x0000000000000069       0x24 /opt/devkitpro/devkitARM/bin/../lib/gcc/arm-none-eabi/12.2.0/../../../../arm-none-eabi/lib/libg.a(lib_a-fread.o)
 .comment       0x0000000000000069       0x24 /opt/devkitpro/devkitARM/bin/../lib/gcc/arm-none-eabi/12.2.0/../../../../arm-none-eabi/lib/libg.a(lib_a-freer.o)
 .comment       0x0000000000000069       0x24 /opt/devkitpro/devkitARM/bin/../lib/gcc/arm-none-eabi/12.2.0/../../../../arm-none-eabi/lib/libg.a(lib_a-fseek.o)
 .comment       0x0000000000000069       0x24 /opt/devkitpro/devkitARM/bin/../lib/gcc/arm-none-eabi/12.2.0/../../../../arm-none-eabi/lib/libg.a(lib_a-fseeko.o)
 .comment       0x0000000000000069       0x24 /opt/devkitpro/devkitARM/bin/../lib/gcc/arm-none-eabi/12.2.0/../../../../arm-none-eabi/lib/libg.a(lib_a-fwalk.o)
 .comment       0x0000000000000069       0x24 /opt/devkitpro/devkitARM/bin/../lib/gcc/arm-none-eabi/12.2.0/../../../../arm-none-eabi/lib/libg.a(lib_a-impure.o)
 .comment       0x0000000000000069       0x24 /opt/devkitpro/devkitARM/bin/../lib/gcc/arm-none-eabi/12.2.0/../../../../arm-none-eabi/lib/libg.a(lib_a-init.o)
 .comment       0x0000000000000069       0x24 /opt/devkitpro/devkitARM/bin/../lib/gcc/arm-none-eabi/12.2.0/../../../../arm-none-eabi/lib/libg.a(lib_a-lcltime_r.o)
 .comment       0x0000000000000069       0x24 /opt/devkitpro/devkitARM/bin/../lib/gcc/arm-none-eabi/12.2.0/../../../../arm-none-eabi/lib/libg.a(lib_a-locale.o)
 .comment       0x0000000000000069       0x24 /opt/devkitpro/devkitARM/bin/../lib/gcc/arm-none-eabi/12.2.0/../../../../arm-none-eabi/lib/libg.a(lib_a-makebuf.o)
 .comment       0x0000000000000069       0x24 /opt/devkitpro/devkitARM/bin/../lib/gcc/arm-none-eabi/12.2.0/../../../../arm-none-eabi/lib/libg.a(lib_a-malloc.o)
 .comment       0x0000000000000069       0x24 /opt/devkitpro/devkitARM/bin/../lib/gcc/arm-none-eabi/12.2.0/../../../../arm-none-eabi/lib/libg.a(lib_a-mallocr.o)
 .comment       0x0000000000000069       0x24 /opt/devkitpro/devkitARM/bin/../lib/gcc/arm-none-eabi/12.2.0/../../../../arm-none-eabi/lib/libg.a(lib_a-mbrtowc.o)
 .comment       0x0000000000000069       0x24 /opt/devkitpro/devkitARM/bin/../lib/gcc/arm-none-eabi/12.2.0/../../../../arm-none-eabi/lib/libg.a(lib_a-mbsrtowcs.o)
 .comment       0x0000000000000069       0x24 /opt/devkitpro/devkitARM/bin/../lib/gcc/arm-none-eabi/12.2.0/../../../../arm-none-eabi/lib/libg.a(lib_a-mbtowc_r.o)
 .comment       0x0000000000000069       0x24 /opt/devkitpro/devkitARM/bin/../lib/gcc/arm-none-eabi/12.2.0/../../../../arm-none-eabi/lib/libg.a(lib_a-memcmp.o)
 .comment       0x0000000000000069       0x24 /opt/devkitpro/devkitARM/bin/../lib/gcc/arm-none-eabi/12.2.0/../../../../arm-none-eabi/lib/libg.a(lib_a-memcpy-stub.o)
 .comment       0x0000000000000069       0x24 /opt/devkitpro/devkitARM/bin/../lib/gcc/arm-none-eabi/12.2.0/../../../../arm-none-eabi/lib/libg.a(lib_a-memmove.o)
 .comment       0x0000000000000069       0x24 /opt/devkitpro/devkitARM/bin/../lib/gcc/arm-none-eabi/12.2.0/../../../../arm-none-eabi/lib/libg.a(lib_a-memset.o)
 .comment       0x0000000000000069       0x24 /opt/devkitpro/devkitARM/bin/../lib/gcc/arm-none-eabi/12.2.0/../../../../arm-none-eabi/lib/libg.a(lib_a-mktime.o)
 .comment       0x0000000000000069       0x24 /opt/devkitpro/devkitARM/bin/../lib/gcc/arm-none-eabi/12.2.0/../../../../arm-none-eabi/lib/libg.a(lib_a-mlock.o)
 .comment       0x0000000000000069       0x24 /opt/devkitpro/devkitARM/bin/../lib/gcc/arm-none-eabi/12.2.0/../../../../arm-none-eabi/lib/libg.a(lib_a-month_lengths.o)
 .comment       0x0000000000000069       0x24 /opt/devkitpro/devkitARM/bin/../lib/gcc/arm-none-eabi/12.2.0/../../../../arm-none-eabi/lib/libg.a(lib_a-printf.o)
 .comment       0x0000000000000069       0x24 /opt/devkitpro/devkitARM/bin/../lib/gcc/arm-none-eabi/12.2.0/../../../../arm-none-eabi/lib/libg.a(lib_a-realloc.o)
 .comment       0x0000000000000069       0x24 /opt/devkitpro/devkitARM/bin/../lib/gcc/arm-none-eabi/12.2.0/../../../../arm-none-eabi/lib/libg.a(lib_a-reallocr.o)
 .comment       0x0000000000000069       0x24 /opt/devkitpro/devkitARM/bin/../lib/gcc/arm-none-eabi/12.2.0/../../../../arm-none-eabi/lib/libg.a(lib_a-refill.o)
 .comment       0x0000000000000069       0x24 /opt/devkitpro/devkitARM/bin/../lib/gcc/arm-none-eabi/12.2.0/../../../../arm-none-eabi/lib/libg.a(lib_a-sprintf.o)
 .comment       0x0000000000000069       0x24 /opt/devkitpro/devkitARM/bin/../lib/gcc/arm-none-eabi/12.2.0/../../../../arm-none-eabi/lib/libg.a(lib_a-stdio.o)
 .comment       0x0000000000000069       0x24 /opt/devkitpro/devkitARM/bin/../lib/gcc/arm-none-eabi/12.2.0/../../../../arm-none-eabi/lib/libg.a(lib_a-stpcpy.o)
 .comment       0x0000000000000069       0x24 /opt/devkitpro/devkitARM/bin/../lib/gcc/arm-none-eabi/12.2.0/../../../../arm-none-eabi/lib/libg.a(lib_a-strcasecmp.o)
 .comment       0x0000000000000069       0x24 /opt/devkitpro/devkitARM/bin/../lib/gcc/arm-none-eabi/12.2.0/../../../../arm-none-eabi/lib/libg.a(lib_a-strchr.o)
 .comment       0x0000000000000069       0x24 /opt/devkitpro/devkitARM/bin/../lib/gcc/arm-none-eabi/12.2.0/../../../../arm-none-eabi/lib/libg.a(lib_a-strcpy.o)
 .comment       0x0000000000000069       0x24 /opt/devkitpro/devkitARM/bin/../lib/gcc/arm-none-eabi/12.2.0/../../../../arm-none-eabi/lib/libg.a(lib_a-strdup.o)
 .comment       0x0000000000000069       0x24 /opt/devkitpro/devkitARM/bin/../lib/gcc/arm-none-eabi/12.2.0/../../../../arm-none-eabi/lib/libg.a(lib_a-strdup_r.o)
 .comment       0x0000000000000069       0x24 /opt/devkitpro/devkitARM/bin/../lib/gcc/arm-none-eabi/12.2.0/../../../../arm-none-eabi/lib/libg.a(lib_a-strlen-stub.o)
 .comment       0x0000000000000069       0x24 /opt/devkitpro/devkitARM/bin/../lib/gcc/arm-none-eabi/12.2.0/../../../../arm-none-eabi/lib/libg.a(lib_a-strncasecmp.o)
 .comment       0x0000000000000069       0x24 /opt/devkitpro/devkitARM/bin/../lib/gcc/arm-none-eabi/12.2.0/../../../../arm-none-eabi/lib/libg.a(lib_a-strncmp.o)
 .comment       0x0000000000000069       0x24 /opt/devkitpro/devkitARM/bin/../lib/gcc/arm-none-eabi/12.2.0/../../../../arm-none-eabi/lib/libg.a(lib_a-strncpy.o)
 .comment       0x0000000000000069       0x24 /opt/devkitpro/devkitARM/bin/../lib/gcc/arm-none-eabi/12.2.0/../../../../arm-none-eabi/lib/libg.a(lib_a-strnlen.o)
 .comment       0x0000000000000069       0x24 /opt/devkitpro/devkitARM/bin/../lib/gcc/arm-none-eabi/12.2.0/../../../../arm-none-eabi/lib/libg.a(lib_a-strpbrk.o)
 .comment       0x0000000000000069       0x24 /opt/devkitpro/devkitARM/bin/../lib/gcc/arm-none-eabi/12.2.0/../../../../arm-none-eabi/lib/libg.a(lib_a-strrchr.o)
 .comment       0x0000000000000069       0x24 /opt/devkitpro/devkitARM/bin/../lib/gcc/arm-none-eabi/12.2.0/../../../../arm-none-eabi/lib/libg.a(lib_a-strtok.o)
 .comment       0x0000000000000069       0x24 /opt/devkitpro/devkitARM/bin/../lib/gcc/arm-none-eabi/12.2.0/../../../../arm-none-eabi/lib/libg.a(lib_a-strtok_r.o)
 .comment       0x0000000000000069       0x24 /opt/devkitpro/devkitARM/bin/../lib/gcc/arm-none-eabi/12.2.0/../../../../arm-none-eabi/lib/libg.a(lib_a-strtol.o)
 .comment       0x0000000000000069       0x24 /opt/devkitpro/devkitARM/bin/../lib/gcc/arm-none-eabi/12.2.0/../../../../arm-none-eabi/lib/libg.a(lib_a-svfprintf.o)
 .comment       0x0000000000000069       0x24 /opt/devkitpro/devkitARM/bin/../lib/gcc/arm-none-eabi/12.2.0/../../../../arm-none-eabi/lib/libg.a(lib_a-syslseek.o)
 .comment       0x0000000000000069       0x24 /opt/devkitpro/devkitARM/bin/../lib/gcc/arm-none-eabi/12.2.0/../../../../arm-none-eabi/lib/libg.a(lib_a-sysopen.o)
 .comment       0x0000000000000069       0x24 /opt/devkitpro/devkitARM/bin/../lib/gcc/arm-none-eabi/12.2.0/../../../../arm-none-eabi/lib/libg.a(lib_a-sysread.o)
 .comment       0x0000000000000069       0x24 /opt/devkitpro/devkitARM/bin/../lib/gcc/arm-none-eabi/12.2.0/../../../../arm-none-eabi/lib/libg.a(lib_a-time.o)
 .comment       0x0000000000000069       0x24 /opt/devkitpro/devkitARM/bin/../lib/gcc/arm-none-eabi/12.2.0/../../../../arm-none-eabi/lib/libg.a(lib_a-towlower.o)
 .comment       0x0000000000000069       0x24 /opt/devkitpro/devkitARM/bin/../lib/gcc/arm-none-eabi/12.2.0/../../../../arm-none-eabi/lib/libg.a(lib_a-towupper.o)
 .comment       0x0000000000000069       0x24 /opt/devkitpro/devkitARM/bin/../lib/gcc/arm-none-eabi/12.2.0/../../../../arm-none-eabi/lib/libg.a(lib_a-tzcalc_limits.o)
 .comment       0x0000000000000069       0x24 /opt/devkitpro/devkitARM/bin/../lib/gcc/arm-none-eabi/12.2.0/../../../../arm-none-eabi/lib/libg.a(lib_a-tzlock.o)
 .comment       0x0000000000000069       0x24 /opt/devkitpro/devkitARM/bin/../lib/gcc/arm-none-eabi/12.2.0/../../../../arm-none-eabi/lib/libg.a(lib_a-tzset.o)
 .comment       0x0000000000000069       0x24 /opt/devkitpro/devkitARM/bin/../lib/gcc/arm-none-eabi/12.2.0/../../../../arm-none-eabi/lib/libg.a(lib_a-tzset_r.o)
 .comment       0x0000000000000069       0x24 /opt/devkitpro/devkitARM/bin/../lib/gcc/arm-none-eabi/12.2.0/../../../../arm-none-eabi/lib/libg.a(lib_a-tzvars.o)
 .comment       0x0000000000000069       0x24 /opt/devkitpro/devkitARM/bin/../lib/gcc/arm-none-eabi/12.2.0/../../../../arm-none-eabi/lib/libg.a(lib_a-vfiprintf.o)
 .comment       0x0000000000000069       0x24 /opt/devkitpro/devkitARM/bin/../lib/gcc/arm-none-eabi/12.2.0/../../../../arm-none-eabi/lib/libg.a(lib_a-vfprintf.o)
 .comment       0x0000000000000069       0x24 /opt/devkitpro/devkitARM/bin/../lib/gcc/arm-none-eabi/12.2.0/../../../../arm-none-eabi/lib/libg.a(lib_a-wcrtomb.o)
 .comment       0x0000000000000069       0x24 /opt/devkitpro/devkitARM/bin/../lib/gcc/arm-none-eabi/12.2.0/../../../../arm-none-eabi/lib/libg.a(lib_a-wcsrtombs.o)
 .comment       0x0000000000000069       0x24 /opt/devkitpro/devkitARM/bin/../lib/gcc/arm-none-eabi/12.2.0/../../../../arm-none-eabi/lib/libg.a(lib_a-wctob.o)
 .comment       0x0000000000000069       0x24 /opt/devkitpro/devkitARM/bin/../lib/gcc/arm-none-eabi/12.2.0/../../../../arm-none-eabi/lib/libg.a(lib_a-wctomb_r.o)
 .comment       0x0000000000000069       0x24 /opt/devkitpro/devkitARM/bin/../lib/gcc/arm-none-eabi/12.2.0/../../../../arm-none-eabi/lib/libg.a(lib_a-wsetup.o)
 .comment       0x0000000000000069       0x24 /opt/devkitpro/devkitARM/bin/../lib/gcc/arm-none-eabi/12.2.0/../../../../arm-none-eabi/lib/libg.a(lib_a-abort.o)
 .comment       0x0000000000000069       0x24 /opt/devkitpro/devkitARM/bin/../lib/gcc/arm-none-eabi/12.2.0/../../../../arm-none-eabi/lib/libg.a(lib_a-__call_atexit.o)
 .comment       0x0000000000000069       0x24 /opt/devkitpro/devkitARM/bin/../lib/gcc/arm-none-eabi/12.2.0/../../../../arm-none-eabi/lib/libg.a(lib_a-div.o)
 .comment       0x0000000000000069       0x24 /opt/devkitpro/devkitARM/bin/../lib/gcc/arm-none-eabi/12.2.0/../../../../arm-none-eabi/lib/libg.a(lib_a-dtoa.o)
 .comment       0x0000000000000069       0x24 /opt/devkitpro/devkitARM/bin/../lib/gcc/arm-none-eabi/12.2.0/../../../../arm-none-eabi/lib/libg.a(lib_a-flags.o)
 .comment       0x0000000000000069       0x24 /opt/devkitpro/devkitARM/bin/../lib/gcc/arm-none-eabi/12.2.0/../../../../arm-none-eabi/lib/libg.a(lib_a-fvwrite.o)
 .comment       0x0000000000000069       0x24 /opt/devkitpro/devkitARM/bin/../lib/gcc/arm-none-eabi/12.2.0/../../../../arm-none-eabi/lib/libg.a(lib_a-getenv_r.o)
 .comment       0x0000000000000069       0x24 /opt/devkitpro/devkitARM/bin/../lib/gcc/arm-none-eabi/12.2.0/../../../../arm-none-eabi/lib/libg.a(lib_a-gettzinfo.o)
 .comment       0x0000000000000069       0x24 /opt/devkitpro/devkitARM/bin/../lib/gcc/arm-none-eabi/12.2.0/../../../../arm-none-eabi/lib/libg.a(lib_a-gmtime_r.o)
 .comment       0x0000000000000069       0x24 /opt/devkitpro/devkitARM/bin/../lib/gcc/arm-none-eabi/12.2.0/../../../../arm-none-eabi/lib/libg.a(lib_a-localeconv.o)
 .comment       0x0000000000000069       0x24 /opt/devkitpro/devkitARM/bin/../lib/gcc/arm-none-eabi/12.2.0/../../../../arm-none-eabi/lib/libg.a(lib_a-mbsnrtowcs.o)
 .comment       0x0000000000000069       0x24 /opt/devkitpro/devkitARM/bin/../lib/gcc/arm-none-eabi/12.2.0/../../../../arm-none-eabi/lib/libg.a(lib_a-memchr-stub.o)
 .comment       0x0000000000000069       0x24 /opt/devkitpro/devkitARM/bin/../lib/gcc/arm-none-eabi/12.2.0/../../../../arm-none-eabi/lib/libg.a(lib_a-mprec.o)
 .comment       0x0000000000000069       0x24 /opt/devkitpro/devkitARM/bin/../lib/gcc/arm-none-eabi/12.2.0/../../../../arm-none-eabi/lib/libg.a(lib_a-s_frexp.o)
 .comment       0x0000000000000069       0x24 /opt/devkitpro/devkitARM/bin/../lib/gcc/arm-none-eabi/12.2.0/../../../../arm-none-eabi/lib/libg.a(lib_a-signal.o)
 .comment       0x0000000000000069       0x24 /opt/devkitpro/devkitARM/bin/../lib/gcc/arm-none-eabi/12.2.0/../../../../arm-none-eabi/lib/libg.a(lib_a-siscanf.o)
 .comment       0x0000000000000069       0x24 /opt/devkitpro/devkitARM/bin/../lib/gcc/arm-none-eabi/12.2.0/../../../../arm-none-eabi/lib/libg.a(lib_a-strtoul.o)
 .comment       0x0000000000000069       0x24 /opt/devkitpro/devkitARM/bin/../lib/gcc/arm-none-eabi/12.2.0/../../../../arm-none-eabi/lib/libg.a(lib_a-svfiprintf.o)
 .comment       0x0000000000000069       0x24 /opt/devkitpro/devkitARM/bin/../lib/gcc/arm-none-eabi/12.2.0/../../../../arm-none-eabi/lib/libg.a(lib_a-svfiscanf.o)
 .comment       0x0000000000000069       0x24 /opt/devkitpro/devkitARM/bin/../lib/gcc/arm-none-eabi/12.2.0/../../../../arm-none-eabi/lib/libg.a(lib_a-towctrans.o)
 .comment       0x0000000000000069       0x24 /opt/devkitpro/devkitARM/bin/../lib/gcc/arm-none-eabi/12.2.0/../../../../arm-none-eabi/lib/libg.a(lib_a-ungetc.o)
 .comment       0x0000000000000069       0x24 /opt/devkitpro/devkitARM/bin/../lib/gcc/arm-none-eabi/12.2.0/../../../../arm-none-eabi/lib/libg.a(lib_a-wcsnrtombs.o)
 .comment       0x0000000000000069       0x24 /opt/devkitpro/devkitARM/bin/../lib/gcc/arm-none-eabi/12.2.0/../../../../arm-none-eabi/lib/libg.a(lib_a-environ.o)
 .comment       0x0000000000000069       0x24 /opt/devkitpro/devkitARM/bin/../lib/gcc/arm-none-eabi/12.2.0/../../../../arm-none-eabi/lib/libg.a(lib_a-envlock.o)
 .comment       0x0000000000000069       0x24 /opt/devkitpro/devkitARM/bin/../lib/gcc/arm-none-eabi/12.2.0/../../../../arm-none-eabi/lib/libg.a(lib_a-iswspace.o)
 .comment       0x0000000000000069       0x24 /opt/devkitpro/devkitARM/bin/../lib/gcc/arm-none-eabi/12.2.0/../../../../arm-none-eabi/lib/libg.a(lib_a-sccl.o)
 .comment       0x0000000000000069       0x24 /opt/devkitpro/devkitARM/bin/../lib/gcc/arm-none-eabi/12.2.0/../../../../arm-none-eabi/lib/libg.a(lib_a-strtoll.o)
 .comment       0x0000000000000069       0x24 /opt/devkitpro/devkitARM/bin/../lib/gcc/arm-none-eabi/12.2.0/../../../../arm-none-eabi/lib/libg.a(lib_a-strtoull.o)
 .comment       0x0000000000000069       0x24 /opt/devkitpro/devkitARM/bin/../lib/gcc/arm-none-eabi/12.2.0/../../../../arm-none-eabi/lib/libg.a(lib_a-towctrans_l.o)
 .comment       0x0000000000000069       0x24 /opt/devkitpro/devkitARM/bin/../lib/gcc/arm-none-eabi/12.2.0/../../../../arm-none-eabi/lib/libg.a(lib_a-iswspace_l.o)
 .comment       0x0000000000000069       0x24 /opt/devkitpro/devkitARM/bin/../lib/gcc/arm-none-eabi/12.2.0/../../../../arm-none-eabi/lib/libg.a(lib_a-jp2uc.o)
 .comment       0x0000000000000069       0x24 /opt/devkitpro/devkitARM/bin/../lib/gcc/arm-none-eabi/12.2.0/../../../../arm-none-eabi/lib/libg.a(lib_a-categories.o)
 .comment       0x0000000000000069       0x24 /opt/devkitpro/devkitARM/bin/../lib/gcc/arm-none-eabi/12.2.0/../../../../arm-none-eabi/lib/libsysbase.a(iosupport.o)
 .comment       0x0000000000000069       0x24 /opt/devkitpro/devkitARM/bin/../lib/gcc/arm-none-eabi/12.2.0/../../../../arm-none-eabi/lib/libsysbase.a(fstat.o)
 .comment       0x0000000000000069       0x24 /opt/devkitpro/devkitARM/bin/../lib/gcc/arm-none-eabi/12.2.0/../../../../arm-none-eabi/lib/libsysbase.a(getpid.o)
 .comment       0x0000000000000069       0x24 /opt/devkitpro/devkitARM/bin/../lib/gcc/arm-none-eabi/12.2.0/../../../../arm-none-eabi/lib/libsysbase.a(gettod.o)
 .comment       0x0000000000000069       0x24 /opt/devkitpro/devkitARM/bin/../lib/gcc/arm-none-eabi/12.2.0/../../../../arm-none-eabi/lib/libsysbase.a(isatty.o)
 .comment       0x0000000000000069       0x24 /opt/devkitpro/devkitARM/bin/../lib/gcc/arm-none-eabi/12.2.0/../../../../arm-none-eabi/lib/libsysbase.a(kill.o)
 .comment       0x0000000000000069       0x24 /opt/devkitpro/devkitARM/bin/../lib/gcc/arm-none-eabi/12.2.0/../../../../arm-none-eabi/lib/libsysbase.a(lseek.o)
 .comment       0x0000000000000069       0x24 /opt/devkitpro/devkitARM/bin/../lib/gcc/arm-none-eabi/12.2.0/../../../../arm-none-eabi/lib/libsysbase.a(open.o)
 .comment       0x0000000000000069       0x24 /opt/devkitpro/devkitARM/bin/../lib/gcc/arm-none-eabi/12.2.0/../../../../arm-none-eabi/lib/libsysbase.a(read.o)
 .comment       0x0000000000000069       0x24 /opt/devkitpro/devkitARM/bin/../lib/gcc/arm-none-eabi/12.2.0/../../../../arm-none-eabi/lib/libsysbase.a(sbrk.o)
 .comment       0x0000000000000069       0x24 /opt/devkitpro/devkitARM/bin/../lib/gcc/arm-none-eabi/12.2.0/../../../../arm-none-eabi/lib/libsysbase.a(write.o)
 .comment       0x0000000000000069       0x24 /opt/devkitpro/devkitARM/bin/../lib/gcc/arm-none-eabi/12.2.0/../../../../arm-none-eabi/lib/libsysbase.a(_exit.o)
 .comment       0x0000000000000069       0x24 /opt/devkitpro/devkitARM/bin/../lib/gcc/arm-none-eabi/12.2.0/../../../../arm-none-eabi/lib/libsysbase.a(malloc_vars.o)
 .comment       0x0000000000000069       0x24 /opt/devkitpro/devkitARM/bin/../lib/gcc/arm-none-eabi/12.2.0/../../../../arm-none-eabi/lib/libsysbase.a(chdir.o)
 .comment       0x0000000000000069       0x24 /opt/devkitpro/devkitARM/bin/../lib/gcc/arm-none-eabi/12.2.0/../../../../arm-none-eabi/lib/libsysbase.a(build_argv.o)
 .comment       0x0000000000000069       0x24 /opt/devkitpro/devkitARM/bin/../lib/gcc/arm-none-eabi/12.2.0/../../../../arm-none-eabi/lib/libsysbase.a(flock.o)
 .comment       0x0000000000000069       0x24 /opt/devkitpro/devkitARM/bin/../lib/gcc/arm-none-eabi/12.2.0/../../../../arm-none-eabi/lib/libsysbase.a(handle_manager.o)
 .comment       0x0000000000000069       0x24 /opt/devkitpro/devkitARM/bin/../lib/gcc/arm-none-eabi/12.2.0/../../../../arm-none-eabi/lib/libsysbase.a(getreent.o)
 .comment       0x0000000000000069       0x24 /opt/devkitpro/devkitARM/bin/../lib/gcc/arm-none-eabi/12.2.0/../../../../arm-none-eabi/lib/libsysbase.a(syscall_support.o)
 .comment       0x0000000000000069       0x24 /opt/devkitpro/devkitARM/bin/../lib/gcc/arm-none-eabi/12.2.0/crtend.o

.ARM.attributes
                0x0000000000000000       0x2d
 .ARM.attributes
                0x0000000000000000       0x21 /opt/devkitpro/devkitARM/bin/../lib/gcc/arm-none-eabi/12.2.0/../../../../arm-none-eabi/lib/ds_arm9_crt0.o
 .ARM.attributes
                0x0000000000000021       0x1c /opt/devkitpro/devkitARM/bin/../lib/gcc/arm-none-eabi/12.2.0/crti.o
 .ARM.attributes
                0x000000000000003d       0x2a /opt/devkitpro/devkitARM/bin/../lib/gcc/arm-none-eabi/12.2.0/crtbegin.o
 .ARM.attributes
                0x0000000000000067       0x2b ../menu/src/MainMenu.o
 .ARM.attributes
                0x0000000000000092       0x2b ../menu/src/Crawler.o
 .ARM.attributes
                0x00000000000000bd       0x2b ../menu/src/HelpScreen.o
 .ARM.attributes
                0x00000000000000e8       0x2b ../menu/src/BattleScreen.o
 .ARM.attributes
                0x0000000000000113       0x2b ../menu/src/CreditsScreen.o
 .ARM.attributes
                0x000000000000013e       0x2b ../menu/src/GameMenu.o
 .ARM.attributes
                0x0000000000000169       0x2b ../menu/src/Main.o
 .ARM.attributes
                0x0000000000000194       0x2b ../menu/src/Engine.o
 .ARM.attributes
                0x00000000000001bf       0x2b ../base3d/src/nitro/NitroGLRenderer.o
 .ARM.attributes
                0x00000000000001ea       0x2b ../base3d/src/Globals.o
 .ARM.attributes
                0x0000000000000215       0x2b ../base3d/src/CTile3DProperties.o
 .ARM.attributes
                0x0000000000000240       0x2b ../GL1Common/LoadBitmapGL1.o
 .ARM.attributes
                0x000000000000026b       0x2b ../GL1Common/RendererGL1.o
 .ARM.attributes
                0x0000000000000296       0x2b ../GL1Common/Renderer_RasterizationGL1.o
 .ARM.attributes
                0x00000000000002c1       0x2b ../GL1Common/Renderer_TesselationGL1.o
 .ARM.attributes
                0x00000000000002ec       0x2b ../base3d/src/VisibilityStrategy.o
 .ARM.attributes
                0x0000000000000317       0x2b ../../common/src/Vec.o
 .ARM.attributes
                0x0000000000000342       0x2b ../../common/src/Common.o
 .ARM.attributes
                0x000000000000036d       0x2b ../../common/src/MapWithCharKey.o
 .ARM.attributes
                0x0000000000000398       0x2b ../../common/src/PackedFileReader.o
 .ARM.attributes
                0x00000000000003c3       0x2b ../base3d/src/Events.o
 .ARM.attributes
                0x00000000000003ee       0x2b ../base3d/src/EDirection_Utils.o
 .ARM.attributes
                0x0000000000000419       0x2b ../SoundSystem/NullMusic.o
 .ARM.attributes
                0x0000000000000444       0x2b ../base3d/src/Dungeon.o
 .ARM.attributes
                0x000000000000046f       0x2b ../menu/src/UI.o
 .ARM.attributes
                0x000000000000049a       0x2b ../menu/src/HackingScreen.o
 .ARM.attributes
                0x00000000000004c5       0x2b ../../core/src/Derelict.o
 .ARM.attributes
                0x00000000000004f0       0x2b ../../core/src/Core.o
 .ARM.attributes
                0x000000000000051b       0x2b ../../core/src/Parser.o
 .ARM.attributes
                0x0000000000000546       0x27 /opt/devkitpro/libnds/lib/libfilesystem.a(nitrofs.o)
 .ARM.attributes
                0x000000000000056d       0x27 /opt/devkitpro/libnds/lib/libfat.a(libfat.o)
 .ARM.attributes
                0x0000000000000594       0x27 /opt/devkitpro/libnds/lib/libfat.a(disc.o)
 .ARM.attributes
                0x00000000000005bb       0x27 /opt/devkitpro/libnds/lib/libfat.a(fatfile.o)
 .ARM.attributes
                0x00000000000005e2       0x27 /opt/devkitpro/libnds/lib/libfat.a(cache.o)
 .ARM.attributes
                0x0000000000000609       0x27 /opt/devkitpro/libnds/lib/libfat.a(fatdir.o)
 .ARM.attributes
                0x0000000000000630       0x27 /opt/devkitpro/libnds/lib/libfat.a(directory.o)
 .ARM.attributes
                0x0000000000000657       0x27 /opt/devkitpro/libnds/lib/libfat.a(partition.o)
 .ARM.attributes
                0x000000000000067e       0x27 /opt/devkitpro/libnds/lib/libfat.a(lock.o)
 .ARM.attributes
                0x00000000000006a5       0x27 /opt/devkitpro/libnds/lib/libfat.a(filetime.o)
 .ARM.attributes
                0x00000000000006cc       0x27 /opt/devkitpro/libnds/lib/libfat.a(file_allocation_table.o)
 .ARM.attributes
                0x00000000000006f3       0x2b /opt/devkitpro/libnds/lib/libnds9.a(dynamicArray.o)
 .ARM.attributes
                0x000000000000071e       0x2b /opt/devkitpro/libnds/lib/libnds9.a(videoGL.o)
 .ARM.attributes
                0x0000000000000749       0x2b /opt/devkitpro/libnds/lib/libnds9.a(keys.o)
 .ARM.attributes
                0x0000000000000774       0x2b /opt/devkitpro/libnds/lib/libnds9.a(dldi.o)
 .ARM.attributes
                0x000000000000079f       0x2b /opt/devkitpro/libnds/lib/libnds9.a(initSystem.o)
 .ARM.attributes
                0x00000000000007ca       0x2b /opt/devkitpro/libnds/lib/libnds9.a(securearea.o)
 .ARM.attributes
                0x00000000000007f5       0x2b /opt/devkitpro/libnds/lib/libnds9.a(interrupts.o)
 .ARM.attributes
                0x0000000000000820       0x2b /opt/devkitpro/libnds/lib/libnds9.a(libnds_exit.arm.o)
 .ARM.attributes
                0x000000000000084b       0x2b /opt/devkitpro/libnds/lib/libnds9.a(card.o)
 .ARM.attributes
                0x0000000000000876       0x2b /opt/devkitpro/libnds/lib/libnds9.a(fifosystem.o)
 .ARM.attributes
                0x00000000000008a1       0x1b /opt/devkitpro/libnds/lib/libnds9.a(dldi_stub.o)
 .ARM.attributes
                0x00000000000008bc       0x21 /opt/devkitpro/libnds/lib/libnds9.a(mpu_setup.o)
 .ARM.attributes
                0x00000000000008dd       0x21 /opt/devkitpro/libnds/lib/libnds9.a(IntrWait.o)
 .ARM.attributes
                0x00000000000008fe       0x21 /opt/devkitpro/libnds/lib/libnds9.a(cpu_clock.o)
 .ARM.attributes
                0x000000000000091f       0x1b /opt/devkitpro/libnds/lib/libnds9.a(interruptDispatcher.o)
 .ARM.attributes
                0x000000000000093a       0x1b /opt/devkitpro/libnds/lib/libnds9.a(biosCalls.o)
 .ARM.attributes
                0x0000000000000955       0x21 /opt/devkitpro/libnds/lib/libnds9.a(swiSoftReset.o)
 .ARM.attributes
                0x0000000000000976       0x2b /opt/devkitpro/libnds/lib/libnds9.a(video.o)
 .ARM.attributes
                0x00000000000009a1       0x2b /opt/devkitpro/libnds/lib/libnds9.a(system.o)
 .ARM.attributes
                0x00000000000009cc       0x2b /opt/devkitpro/libnds/lib/libnds9.a(sd.twl.o)
 .ARM.attributes
                0x00000000000009f7       0x1b /opt/devkitpro/libnds/lib/libnds9.a(dcache.o)
 .ARM.attributes
                0x0000000000000a12       0x1c /opt/devkitpro/devkitARM/bin/../lib/gcc/arm-none-eabi/12.2.0/libgcc.a(_udivsi3.o)
 .ARM.attributes
                0x0000000000000a2e       0x1c /opt/devkitpro/devkitARM/bin/../lib/gcc/arm-none-eabi/12.2.0/libgcc.a(_divsi3.o)
 .ARM.attributes
                0x0000000000000a4a       0x1c /opt/devkitpro/devkitARM/bin/../lib/gcc/arm-none-eabi/12.2.0/libgcc.a(_dvmd_tls.o)
 .ARM.attributes
                0x0000000000000a66       0x1c /opt/devkitpro/devkitARM/bin/../lib/gcc/arm-none-eabi/12.2.0/libgcc.a(_arm_addsubsf3.o)
 .ARM.attributes
                0x0000000000000a82       0x1c /opt/devkitpro/devkitARM/bin/../lib/gcc/arm-none-eabi/12.2.0/libgcc.a(_arm_muldivsf3.o)
 .ARM.attributes
                0x0000000000000a9e       0x1c /opt/devkitpro/devkitARM/bin/../lib/gcc/arm-none-eabi/12.2.0/libgcc.a(_arm_fixsfsi.o)
 .ARM.attributes
                0x0000000000000aba       0x1c /opt/devkitpro/devkitARM/bin/../lib/gcc/arm-none-eabi/12.2.0/libgcc.a(_arm_fixunssfsi.o)
 .ARM.attributes
                0x0000000000000ad6       0x1c /opt/devkitpro/devkitARM/bin/../lib/gcc/arm-none-eabi/12.2.0/libgcc.a(_aeabi_ldivmod.o)
 .ARM.attributes
                0x0000000000000af2       0x2a /opt/devkitpro/devkitARM/bin/../lib/gcc/arm-none-eabi/12.2.0/libgcc.a(_muldi3.o)
 .ARM.attributes
                0x0000000000000b1c       0x2a /opt/devkitpro/devkitARM/bin/../lib/gcc/arm-none-eabi/12.2.0/libgcc.a(_udivmoddi4.o)
 .ARM.attributes
                0x0000000000000b46       0x1c /opt/devkitpro/devkitARM/bin/../lib/gcc/arm-none-eabi/12.2.0/libgcc.a(_clzdi2.o)
 .ARM.attributes
                0x0000000000000b62       0x1c /opt/devkitpro/devkitARM/bin/../lib/gcc/arm-none-eabi/12.2.0/libgcc.a(_clzsi2.o)
 .ARM.attributes
                0x0000000000000b7e       0x2a /opt/devkitpro/devkitARM/bin/../lib/gcc/arm-none-eabi/12.2.0/../../../../arm-none-eabi/lib/libg.a(lib_a-assert.o)
 .ARM.attributes
                0x0000000000000ba8       0x2a /opt/devkitpro/devkitARM/bin/../lib/gcc/arm-none-eabi/12.2.0/../../../../arm-none-eabi/lib/libg.a(lib_a-atoi.o)
 .ARM.attributes
                0x0000000000000bd2       0x2a /opt/devkitpro/devkitARM/bin/../lib/gcc/arm-none-eabi/12.2.0/../../../../arm-none-eabi/lib/libg.a(lib_a-calloc.o)
 .ARM.attributes
                0x0000000000000bfc       0x2a /opt/devkitpro/devkitARM/bin/../lib/gcc/arm-none-eabi/12.2.0/../../../../arm-none-eabi/lib/libg.a(lib_a-callocr.o)
 .ARM.attributes
                0x0000000000000c26       0x2a /opt/devkitpro/devkitARM/bin/../lib/gcc/arm-none-eabi/12.2.0/../../../../arm-none-eabi/lib/libg.a(lib_a-ctype_.o)
 .ARM.attributes
                0x0000000000000c50       0x2a /opt/devkitpro/devkitARM/bin/../lib/gcc/arm-none-eabi/12.2.0/../../../../arm-none-eabi/lib/libg.a(lib_a-errno.o)
 .ARM.attributes
                0x0000000000000c7a       0x2a /opt/devkitpro/devkitARM/bin/../lib/gcc/arm-none-eabi/12.2.0/../../../../arm-none-eabi/lib/libg.a(lib_a-exit.o)
 .ARM.attributes
                0x0000000000000ca4       0x2a /opt/devkitpro/devkitARM/bin/../lib/gcc/arm-none-eabi/12.2.0/../../../../arm-none-eabi/lib/libg.a(lib_a-fclose.o)
 .ARM.attributes
                0x0000000000000cce       0x2a /opt/devkitpro/devkitARM/bin/../lib/gcc/arm-none-eabi/12.2.0/../../../../arm-none-eabi/lib/libg.a(lib_a-fflush.o)
 .ARM.attributes
                0x0000000000000cf8       0x2a /opt/devkitpro/devkitARM/bin/../lib/gcc/arm-none-eabi/12.2.0/../../../../arm-none-eabi/lib/libg.a(lib_a-findfp.o)
 .ARM.attributes
                0x0000000000000d22       0x2a /opt/devkitpro/devkitARM/bin/../lib/gcc/arm-none-eabi/12.2.0/../../../../arm-none-eabi/lib/libg.a(lib_a-fiprintf.o)
 .ARM.attributes
                0x0000000000000d4c       0x2a /opt/devkitpro/devkitARM/bin/../lib/gcc/arm-none-eabi/12.2.0/../../../../arm-none-eabi/lib/libg.a(lib_a-fopen.o)
 .ARM.attributes
                0x0000000000000d76       0x2a /opt/devkitpro/devkitARM/bin/../lib/gcc/arm-none-eabi/12.2.0/../../../../arm-none-eabi/lib/libg.a(lib_a-fread.o)
 .ARM.attributes
                0x0000000000000da0       0x2a /opt/devkitpro/devkitARM/bin/../lib/gcc/arm-none-eabi/12.2.0/../../../../arm-none-eabi/lib/libg.a(lib_a-freer.o)
 .ARM.attributes
                0x0000000000000dca       0x2a /opt/devkitpro/devkitARM/bin/../lib/gcc/arm-none-eabi/12.2.0/../../../../arm-none-eabi/lib/libg.a(lib_a-fseek.o)
 .ARM.attributes
                0x0000000000000df4       0x2a /opt/devkitpro/devkitARM/bin/../lib/gcc/arm-none-eabi/12.2.0/../../../../arm-none-eabi/lib/libg.a(lib_a-fseeko.o)
 .ARM.attributes
                0x0000000000000e1e       0x2a /opt/devkitpro/devkitARM/bin/../lib/gcc/arm-none-eabi/12.2.0/../../../../arm-none-eabi/lib/libg.a(lib_a-fwalk.o)
 .ARM.attributes
                0x0000000000000e48       0x2a /opt/devkitpro/devkitARM/bin/../lib/gcc/arm-none-eabi/12.2.0/../../../../arm-none-eabi/lib/libg.a(lib_a-impure.o)
 .ARM.attributes
                0x0000000000000e72       0x2a /opt/devkitpro/devkitARM/bin/../lib/gcc/arm-none-eabi/12.2.0/../../../../arm-none-eabi/lib/libg.a(lib_a-init.o)
 .ARM.attributes
                0x0000000000000e9c       0x2a /opt/devkitpro/devkitARM/bin/../lib/gcc/arm-none-eabi/12.2.0/../../../../arm-none-eabi/lib/libg.a(lib_a-lcltime_r.o)
 .ARM.attributes
                0x0000000000000ec6       0x2a /opt/devkitpro/devkitARM/bin/../lib/gcc/arm-none-eabi/12.2.0/../../../../arm-none-eabi/lib/libg.a(lib_a-locale.o)
 .ARM.attributes
                0x0000000000000ef0       0x2a /opt/devkitpro/devkitARM/bin/../lib/gcc/arm-none-eabi/12.2.0/../../../../arm-none-eabi/lib/libg.a(lib_a-makebuf.o)
 .ARM.attributes
                0x0000000000000f1a       0x2a /opt/devkitpro/devkitARM/bin/../lib/gcc/arm-none-eabi/12.2.0/../../../../arm-none-eabi/lib/libg.a(lib_a-malloc.o)
 .ARM.attributes
                0x0000000000000f44       0x2a /opt/devkitpro/devkitARM/bin/../lib/gcc/arm-none-eabi/12.2.0/../../../../arm-none-eabi/lib/libg.a(lib_a-mallocr.o)
 .ARM.attributes
                0x0000000000000f6e       0x2a /opt/devkitpro/devkitARM/bin/../lib/gcc/arm-none-eabi/12.2.0/../../../../arm-none-eabi/lib/libg.a(lib_a-mbrtowc.o)
 .ARM.attributes
                0x0000000000000f98       0x2a /opt/devkitpro/devkitARM/bin/../lib/gcc/arm-none-eabi/12.2.0/../../../../arm-none-eabi/lib/libg.a(lib_a-mbsrtowcs.o)
 .ARM.attributes
                0x0000000000000fc2       0x2a /opt/devkitpro/devkitARM/bin/../lib/gcc/arm-none-eabi/12.2.0/../../../../arm-none-eabi/lib/libg.a(lib_a-mbtowc_r.o)
 .ARM.attributes
                0x0000000000000fec       0x2a /opt/devkitpro/devkitARM/bin/../lib/gcc/arm-none-eabi/12.2.0/../../../../arm-none-eabi/lib/libg.a(lib_a-memcmp.o)
 .ARM.attributes
                0x0000000000001016       0x2a /opt/devkitpro/devkitARM/bin/../lib/gcc/arm-none-eabi/12.2.0/../../../../arm-none-eabi/lib/libg.a(lib_a-memcpy-stub.o)
 .ARM.attributes
                0x0000000000001040       0x2a /opt/devkitpro/devkitARM/bin/../lib/gcc/arm-none-eabi/12.2.0/../../../../arm-none-eabi/lib/libg.a(lib_a-memmove.o)
 .ARM.attributes
                0x000000000000106a       0x2a /opt/devkitpro/devkitARM/bin/../lib/gcc/arm-none-eabi/12.2.0/../../../../arm-none-eabi/lib/libg.a(lib_a-memset.o)
 .ARM.attributes
                0x0000000000001094       0x2a /opt/devkitpro/devkitARM/bin/../lib/gcc/arm-none-eabi/12.2.0/../../../../arm-none-eabi/lib/libg.a(lib_a-mktime.o)
 .ARM.attributes
                0x00000000000010be       0x2a /opt/devkitpro/devkitARM/bin/../lib/gcc/arm-none-eabi/12.2.0/../../../../arm-none-eabi/lib/libg.a(lib_a-mlock.o)
 .ARM.attributes
                0x00000000000010e8       0x2a /opt/devkitpro/devkitARM/bin/../lib/gcc/arm-none-eabi/12.2.0/../../../../arm-none-eabi/lib/libg.a(lib_a-month_lengths.o)
 .ARM.attributes
                0x0000000000001112       0x2a /opt/devkitpro/devkitARM/bin/../lib/gcc/arm-none-eabi/12.2.0/../../../../arm-none-eabi/lib/libg.a(lib_a-printf.o)
 .ARM.attributes
                0x000000000000113c       0x2a /opt/devkitpro/devkitARM/bin/../lib/gcc/arm-none-eabi/12.2.0/../../../../arm-none-eabi/lib/libg.a(lib_a-realloc.o)
 .ARM.attributes
                0x0000000000001166       0x2a /opt/devkitpro/devkitARM/bin/../lib/gcc/arm-none-eabi/12.2.0/../../../../arm-none-eabi/lib/libg.a(lib_a-reallocr.o)
 .ARM.attributes
                0x0000000000001190       0x2a /opt/devkitpro/devkitARM/bin/../lib/gcc/arm-none-eabi/12.2.0/../../../../arm-none-eabi/lib/libg.a(lib_a-refill.o)
 .ARM.attributes
                0x00000000000011ba       0x2a /opt/devkitpro/devkitARM/bin/../lib/gcc/arm-none-eabi/12.2.0/../../../../arm-none-eabi/lib/libg.a(lib_a-sprintf.o)
 .ARM.attributes
                0x00000000000011e4       0x2a /opt/devkitpro/devkitARM/bin/../lib/gcc/arm-none-eabi/12.2.0/../../../../arm-none-eabi/lib/libg.a(lib_a-stdio.o)
 .ARM.attributes
                0x000000000000120e       0x2a /opt/devkitpro/devkitARM/bin/../lib/gcc/arm-none-eabi/12.2.0/../../../../arm-none-eabi/lib/libg.a(lib_a-stpcpy.o)
 .ARM.attributes
                0x0000000000001238       0x2a /opt/devkitpro/devkitARM/bin/../lib/gcc/arm-none-eabi/12.2.0/../../../../arm-none-eabi/lib/libg.a(lib_a-strcasecmp.o)
 .ARM.attributes
                0x0000000000001262       0x2a /opt/devkitpro/devkitARM/bin/../lib/gcc/arm-none-eabi/12.2.0/../../../../arm-none-eabi/lib/libg.a(lib_a-strchr.o)
 .ARM.attributes
                0x000000000000128c       0x1a /opt/devkitpro/devkitARM/bin/../lib/gcc/arm-none-eabi/12.2.0/../../../../arm-none-eabi/lib/libg.a(lib_a-strcmp.o)
 .ARM.attributes
                0x00000000000012a6       0x2a /opt/devkitpro/devkitARM/bin/../lib/gcc/arm-none-eabi/12.2.0/../../../../arm-none-eabi/lib/libg.a(lib_a-strcpy.o)
 .ARM.attributes
                0x00000000000012d0       0x2a /opt/devkitpro/devkitARM/bin/../lib/gcc/arm-none-eabi/12.2.0/../../../../arm-none-eabi/lib/libg.a(lib_a-strdup.o)
 .ARM.attributes
                0x00000000000012fa       0x2a /opt/devkitpro/devkitARM/bin/../lib/gcc/arm-none-eabi/12.2.0/../../../../arm-none-eabi/lib/libg.a(lib_a-strdup_r.o)
 .ARM.attributes
                0x0000000000001324       0x2a /opt/devkitpro/devkitARM/bin/../lib/gcc/arm-none-eabi/12.2.0/../../../../arm-none-eabi/lib/libg.a(lib_a-strlen-stub.o)
 .ARM.attributes
                0x000000000000134e       0x2a /opt/devkitpro/devkitARM/bin/../lib/gcc/arm-none-eabi/12.2.0/../../../../arm-none-eabi/lib/libg.a(lib_a-strncasecmp.o)
 .ARM.attributes
                0x0000000000001378       0x2a /opt/devkitpro/devkitARM/bin/../lib/gcc/arm-none-eabi/12.2.0/../../../../arm-none-eabi/lib/libg.a(lib_a-strncmp.o)
 .ARM.attributes
                0x00000000000013a2       0x2a /opt/devkitpro/devkitARM/bin/../lib/gcc/arm-none-eabi/12.2.0/../../../../arm-none-eabi/lib/libg.a(lib_a-strncpy.o)
 .ARM.attributes
                0x00000000000013cc       0x2a /opt/devkitpro/devkitARM/bin/../lib/gcc/arm-none-eabi/12.2.0/../../../../arm-none-eabi/lib/libg.a(lib_a-strnlen.o)
 .ARM.attributes
                0x00000000000013f6       0x2a /opt/devkitpro/devkitARM/bin/../lib/gcc/arm-none-eabi/12.2.0/../../../../arm-none-eabi/lib/libg.a(lib_a-strpbrk.o)
 .ARM.attributes
                0x0000000000001420       0x2a /opt/devkitpro/devkitARM/bin/../lib/gcc/arm-none-eabi/12.2.0/../../../../arm-none-eabi/lib/libg.a(lib_a-strrchr.o)
 .ARM.attributes
                0x000000000000144a       0x2a /opt/devkitpro/devkitARM/bin/../lib/gcc/arm-none-eabi/12.2.0/../../../../arm-none-eabi/lib/libg.a(lib_a-strtok.o)
 .ARM.attributes
                0x0000000000001474       0x2a /opt/devkitpro/devkitARM/bin/../lib/gcc/arm-none-eabi/12.2.0/../../../../arm-none-eabi/lib/libg.a(lib_a-strtok_r.o)
 .ARM.attributes
                0x000000000000149e       0x2a /opt/devkitpro/devkitARM/bin/../lib/gcc/arm-none-eabi/12.2.0/../../../../arm-none-eabi/lib/libg.a(lib_a-strtol.o)
 .ARM.attributes
                0x00000000000014c8       0x2a /opt/devkitpro/devkitARM/bin/../lib/gcc/arm-none-eabi/12.2.0/../../../../arm-none-eabi/lib/libg.a(lib_a-svfprintf.o)
 .ARM.attributes
                0x00000000000014f2       0x2a /opt/devkitpro/devkitARM/bin/../lib/gcc/arm-none-eabi/12.2.0/../../../../arm-none-eabi/lib/libg.a(lib_a-syslseek.o)
 .ARM.attributes
                0x000000000000151c       0x2a /opt/devkitpro/devkitARM/bin/../lib/gcc/arm-none-eabi/12.2.0/../../../../arm-none-eabi/lib/libg.a(lib_a-sysopen.o)
 .ARM.attributes
                0x0000000000001546       0x2a /opt/devkitpro/devkitARM/bin/../lib/gcc/arm-none-eabi/12.2.0/../../../../arm-none-eabi/lib/libg.a(lib_a-sysread.o)
 .ARM.attributes
                0x0000000000001570       0x2a /opt/devkitpro/devkitARM/bin/../lib/gcc/arm-none-eabi/12.2.0/../../../../arm-none-eabi/lib/libg.a(lib_a-time.o)
 .ARM.attributes
                0x000000000000159a       0x2a /opt/devkitpro/devkitARM/bin/../lib/gcc/arm-none-eabi/12.2.0/../../../../arm-none-eabi/lib/libg.a(lib_a-towlower.o)
 .ARM.attributes
                0x00000000000015c4       0x2a /opt/devkitpro/devkitARM/bin/../lib/gcc/arm-none-eabi/12.2.0/../../../../arm-none-eabi/lib/libg.a(lib_a-towupper.o)
 .ARM.attributes
                0x00000000000015ee       0x2a /opt/devkitpro/devkitARM/bin/../lib/gcc/arm-none-eabi/12.2.0/../../../../arm-none-eabi/lib/libg.a(lib_a-tzcalc_limits.o)
 .ARM.attributes
                0x0000000000001618       0x2a /opt/devkitpro/devkitARM/bin/../lib/gcc/arm-none-eabi/12.2.0/../../../../arm-none-eabi/lib/libg.a(lib_a-tzlock.o)
 .ARM.attributes
                0x0000000000001642       0x2a /opt/devkitpro/devkitARM/bin/../lib/gcc/arm-none-eabi/12.2.0/../../../../arm-none-eabi/lib/libg.a(lib_a-tzset.o)
 .ARM.attributes
                0x000000000000166c       0x2a /opt/devkitpro/devkitARM/bin/../lib/gcc/arm-none-eabi/12.2.0/../../../../arm-none-eabi/lib/libg.a(lib_a-tzset_r.o)
 .ARM.attributes
                0x0000000000001696       0x2a /opt/devkitpro/devkitARM/bin/../lib/gcc/arm-none-eabi/12.2.0/../../../../arm-none-eabi/lib/libg.a(lib_a-tzvars.o)
 .ARM.attributes
                0x00000000000016c0       0x2a /opt/devkitpro/devkitARM/bin/../lib/gcc/arm-none-eabi/12.2.0/../../../../arm-none-eabi/lib/libg.a(lib_a-vfiprintf.o)
 .ARM.attributes
                0x00000000000016ea       0x2a /opt/devkitpro/devkitARM/bin/../lib/gcc/arm-none-eabi/12.2.0/../../../../arm-none-eabi/lib/libg.a(lib_a-vfprintf.o)
 .ARM.attributes
                0x0000000000001714       0x2a /opt/devkitpro/devkitARM/bin/../lib/gcc/arm-none-eabi/12.2.0/../../../../arm-none-eabi/lib/libg.a(lib_a-wcrtomb.o)
 .ARM.attributes
                0x000000000000173e       0x2a /opt/devkitpro/devkitARM/bin/../lib/gcc/arm-none-eabi/12.2.0/../../../../arm-none-eabi/lib/libg.a(lib_a-wcsrtombs.o)
 .ARM.attributes
                0x0000000000001768       0x2a /opt/devkitpro/devkitARM/bin/../lib/gcc/arm-none-eabi/12.2.0/../../../../arm-none-eabi/lib/libg.a(lib_a-wctob.o)
 .ARM.attributes
                0x0000000000001792       0x2a /opt/devkitpro/devkitARM/bin/../lib/gcc/arm-none-eabi/12.2.0/../../../../arm-none-eabi/lib/libg.a(lib_a-wctomb_r.o)
 .ARM.attributes
                0x00000000000017bc       0x2a /opt/devkitpro/devkitARM/bin/../lib/gcc/arm-none-eabi/12.2.0/../../../../arm-none-eabi/lib/libg.a(lib_a-wsetup.o)
 .ARM.attributes
                0x00000000000017e6       0x2a /opt/devkitpro/devkitARM/bin/../lib/gcc/arm-none-eabi/12.2.0/../../../../arm-none-eabi/lib/libg.a(lib_a-abort.o)
 .ARM.attributes
                0x0000000000001810       0x2a /opt/devkitpro/devkitARM/bin/../lib/gcc/arm-none-eabi/12.2.0/../../../../arm-none-eabi/lib/libg.a(lib_a-__call_atexit.o)
 .ARM.attributes
                0x000000000000183a       0x2a /opt/devkitpro/devkitARM/bin/../lib/gcc/arm-none-eabi/12.2.0/../../../../arm-none-eabi/lib/libg.a(lib_a-div.o)
 .ARM.attributes
                0x0000000000001864       0x2a /opt/devkitpro/devkitARM/bin/../lib/gcc/arm-none-eabi/12.2.0/../../../../arm-none-eabi/lib/libg.a(lib_a-dtoa.o)
 .ARM.attributes
                0x000000000000188e       0x2a /opt/devkitpro/devkitARM/bin/../lib/gcc/arm-none-eabi/12.2.0/../../../../arm-none-eabi/lib/libg.a(lib_a-flags.o)
 .ARM.attributes
                0x00000000000018b8       0x2a /opt/devkitpro/devkitARM/bin/../lib/gcc/arm-none-eabi/12.2.0/../../../../arm-none-eabi/lib/libg.a(lib_a-fvwrite.o)
 .ARM.attributes
                0x00000000000018e2       0x2a /opt/devkitpro/devkitARM/bin/../lib/gcc/arm-none-eabi/12.2.0/../../../../arm-none-eabi/lib/libg.a(lib_a-getenv_r.o)
 .ARM.attributes
                0x000000000000190c       0x2a /opt/devkitpro/devkitARM/bin/../lib/gcc/arm-none-eabi/12.2.0/../../../../arm-none-eabi/lib/libg.a(lib_a-gettzinfo.o)
 .ARM.attributes
                0x0000000000001936       0x2a /opt/devkitpro/devkitARM/bin/../lib/gcc/arm-none-eabi/12.2.0/../../../../arm-none-eabi/lib/libg.a(lib_a-gmtime_r.o)
 .ARM.attributes
                0x0000000000001960       0x2a /opt/devkitpro/devkitARM/bin/../lib/gcc/arm-none-eabi/12.2.0/../../../../arm-none-eabi/lib/libg.a(lib_a-localeconv.o)
 .ARM.attributes
                0x000000000000198a       0x2a /opt/devkitpro/devkitARM/bin/../lib/gcc/arm-none-eabi/12.2.0/../../../../arm-none-eabi/lib/libg.a(lib_a-mbsnrtowcs.o)
 .ARM.attributes
                0x00000000000019b4       0x2a /opt/devkitpro/devkitARM/bin/../lib/gcc/arm-none-eabi/12.2.0/../../../../arm-none-eabi/lib/libg.a(lib_a-memchr-stub.o)
 .ARM.attributes
                0x00000000000019de       0x2a /opt/devkitpro/devkitARM/bin/../lib/gcc/arm-none-eabi/12.2.0/../../../../arm-none-eabi/lib/libg.a(lib_a-mprec.o)
 .ARM.attributes
                0x0000000000001a08       0x2a /opt/devkitpro/devkitARM/bin/../lib/gcc/arm-none-eabi/12.2.0/../../../../arm-none-eabi/lib/libg.a(lib_a-s_frexp.o)
 .ARM.attributes
                0x0000000000001a32       0x2a /opt/devkitpro/devkitARM/bin/../lib/gcc/arm-none-eabi/12.2.0/../../../../arm-none-eabi/lib/libg.a(lib_a-signal.o)
 .ARM.attributes
                0x0000000000001a5c       0x2a /opt/devkitpro/devkitARM/bin/../lib/gcc/arm-none-eabi/12.2.0/../../../../arm-none-eabi/lib/libg.a(lib_a-siscanf.o)
 .ARM.attributes
                0x0000000000001a86       0x2a /opt/devkitpro/devkitARM/bin/../lib/gcc/arm-none-eabi/12.2.0/../../../../arm-none-eabi/lib/libg.a(lib_a-strtoul.o)
 .ARM.attributes
                0x0000000000001ab0       0x2a /opt/devkitpro/devkitARM/bin/../lib/gcc/arm-none-eabi/12.2.0/../../../../arm-none-eabi/lib/libg.a(lib_a-svfiprintf.o)
 .ARM.attributes
                0x0000000000001ada       0x2a /opt/devkitpro/devkitARM/bin/../lib/gcc/arm-none-eabi/12.2.0/../../../../arm-none-eabi/lib/libg.a(lib_a-svfiscanf.o)
 .ARM.attributes
                0x0000000000001b04       0x2a /opt/devkitpro/devkitARM/bin/../lib/gcc/arm-none-eabi/12.2.0/../../../../arm-none-eabi/lib/libg.a(lib_a-towctrans.o)
 .ARM.attributes
                0x0000000000001b2e       0x2a /opt/devkitpro/devkitARM/bin/../lib/gcc/arm-none-eabi/12.2.0/../../../../arm-none-eabi/lib/libg.a(lib_a-ungetc.o)
 .ARM.attributes
                0x0000000000001b58       0x2a /opt/devkitpro/devkitARM/bin/../lib/gcc/arm-none-eabi/12.2.0/../../../../arm-none-eabi/lib/libg.a(lib_a-wcsnrtombs.o)
 .ARM.attributes
                0x0000000000001b82       0x2a /opt/devkitpro/devkitARM/bin/../lib/gcc/arm-none-eabi/12.2.0/../../../../arm-none-eabi/lib/libg.a(lib_a-environ.o)
 .ARM.attributes
                0x0000000000001bac       0x2a /opt/devkitpro/devkitARM/bin/../lib/gcc/arm-none-eabi/12.2.0/../../../../arm-none-eabi/lib/libg.a(lib_a-envlock.o)
 .ARM.attributes
                0x0000000000001bd6       0x2a /opt/devkitpro/devkitARM/bin/../lib/gcc/arm-none-eabi/12.2.0/../../../../arm-none-eabi/lib/libg.a(lib_a-iswspace.o)
 .ARM.attributes
                0x0000000000001c00       0x2a /opt/devkitpro/devkitARM/bin/../lib/gcc/arm-none-eabi/12.2.0/../../../../arm-none-eabi/lib/libg.a(lib_a-sccl.o)
 .ARM.attributes
                0x0000000000001c2a       0x2a /opt/devkitpro/devkitARM/bin/../lib/gcc/arm-none-eabi/12.2.0/../../../../arm-none-eabi/lib/libg.a(lib_a-strtoll.o)
 .ARM.attributes
                0x0000000000001c54       0x2a /opt/devkitpro/devkitARM/bin/../lib/gcc/arm-none-eabi/12.2.0/../../../../arm-none-eabi/lib/libg.a(lib_a-strtoull.o)
 .ARM.attributes
                0x0000000000001c7e       0x2a /opt/devkitpro/devkitARM/bin/../lib/gcc/arm-none-eabi/12.2.0/../../../../arm-none-eabi/lib/libg.a(lib_a-towctrans_l.o)
 .ARM.attributes
                0x0000000000001ca8       0x2a /opt/devkitpro/devkitARM/bin/../lib/gcc/arm-none-eabi/12.2.0/../../../../arm-none-eabi/lib/libg.a(lib_a-iswspace_l.o)
 .ARM.attributes
                0x0000000000001cd2       0x2a /opt/devkitpro/devkitARM/bin/../lib/gcc/arm-none-eabi/12.2.0/../../../../arm-none-eabi/lib/libg.a(lib_a-jp2uc.o)
 .ARM.attributes
                0x0000000000001cfc       0x2a /opt/devkitpro/devkitARM/bin/../lib/gcc/arm-none-eabi/12.2.0/../../../../arm-none-eabi/lib/libg.a(lib_a-categories.o)
 .ARM.attributes
                0x0000000000001d26       0x2a /opt/devkitpro/devkitARM/bin/../lib/gcc/arm-none-eabi/12.2.0/../../../../arm-none-eabi/lib/libsysbase.a(iosupport.o)
 .ARM.attributes
                0x0000000000001d50       0x2a /opt/devkitpro/devkitARM/bin/../lib/gcc/arm-none-eabi/12.2.0/../../../../arm-none-eabi/lib/libsysbase.a(fstat.o)
 .ARM.attributes
                0x0000000000001d7a       0x2a /opt/devkitpro/devkitARM/bin/../lib/gcc/arm-none-eabi/12.2.0/../../../../arm-none-eabi/lib/libsysbase.a(getpid.o)
 .ARM.attributes
                0x0000000000001da4       0x2a /opt/devkitpro/devkitARM/bin/../lib/gcc/arm-none-eabi/12.2.0/../../../../arm-none-eabi/lib/libsysbase.a(gettod.o)
 .ARM.attributes
                0x0000000000001dce       0x2a /opt/devkitpro/devkitARM/bin/../lib/gcc/arm-none-eabi/12.2.0/../../../../arm-none-eabi/lib/libsysbase.a(isatty.o)
 .ARM.attributes
                0x0000000000001df8       0x2a /opt/devkitpro/devkitARM/bin/../lib/gcc/arm-none-eabi/12.2.0/../../../../arm-none-eabi/lib/libsysbase.a(kill.o)
 .ARM.attributes
                0x0000000000001e22       0x2a /opt/devkitpro/devkitARM/bin/../lib/gcc/arm-none-eabi/12.2.0/../../../../arm-none-eabi/lib/libsysbase.a(lseek.o)
 .ARM.attributes
                0x0000000000001e4c       0x2a /opt/devkitpro/devkitARM/bin/../lib/gcc/arm-none-eabi/12.2.0/../../../../arm-none-eabi/lib/libsysbase.a(open.o)
 .ARM.attributes
                0x0000000000001e76       0x2a /opt/devkitpro/devkitARM/bin/../lib/gcc/arm-none-eabi/12.2.0/../../../../arm-none-eabi/lib/libsysbase.a(read.o)
 .ARM.attributes
                0x0000000000001ea0       0x2a /opt/devkitpro/devkitARM/bin/../lib/gcc/arm-none-eabi/12.2.0/../../../../arm-none-eabi/lib/libsysbase.a(sbrk.o)
 .ARM.attributes
                0x0000000000001eca       0x2a /opt/devkitpro/devkitARM/bin/../lib/gcc/arm-none-eabi/12.2.0/../../../../arm-none-eabi/lib/libsysbase.a(write.o)
 .ARM.attributes
                0x0000000000001ef4       0x2a /opt/devkitpro/devkitARM/bin/../lib/gcc/arm-none-eabi/12.2.0/../../../../arm-none-eabi/lib/libsysbase.a(_exit.o)
 .ARM.attributes
                0x0000000000001f1e       0x2a /opt/devkitpro/devkitARM/bin/../lib/gcc/arm-none-eabi/12.2.0/../../../../arm-none-eabi/lib/libsysbase.a(malloc_vars.o)
 .ARM.attributes
                0x0000000000001f48       0x2a /opt/devkitpro/devkitARM/bin/../lib/gcc/arm-none-eabi/12.2.0/../../../../arm-none-eabi/lib/libsysbase.a(chdir.o)
 .ARM.attributes
                0x0000000000001f72       0x2a /opt/devkitpro/devkitARM/bin/../lib/gcc/arm-none-eabi/12.2.0/../../../../arm-none-eabi/lib/libsysbase.a(build_argv.o)
 .ARM.attributes
                0x0000000000001f9c       0x2a /opt/devkitpro/devkitARM/bin/../lib/gcc/arm-none-eabi/12.2.0/../../../../arm-none-eabi/lib/libsysbase.a(flock.o)
 .ARM.attributes
                0x0000000000001fc6       0x2a /opt/devkitpro/devkitARM/bin/../lib/gcc/arm-none-eabi/12.2.0/../../../../arm-none-eabi/lib/libsysbase.a(handle_manager.o)
 .ARM.attributes
                0x0000000000001ff0       0x2a /opt/devkitpro/devkitARM/bin/../lib/gcc/arm-none-eabi/12.2.0/../../../../arm-none-eabi/lib/libsysbase.a(getreent.o)
 .ARM.attributes
                0x000000000000201a       0x2a /opt/devkitpro/devkitARM/bin/../lib/gcc/arm-none-eabi/12.2.0/../../../../arm-none-eabi/lib/libsysbase.a(syscall_support.o)
 .ARM.attributes
                0x0000000000002044       0x1c /opt/devkitpro/devkitARM/bin/../lib/gcc/arm-none-eabi/12.2.0/libgcc.a(_arm_addsubdf3.o)
 .ARM.attributes
                0x0000000000002060       0x1c /opt/devkitpro/devkitARM/bin/../lib/gcc/arm-none-eabi/12.2.0/libgcc.a(_arm_muldivdf3.o)
 .ARM.attributes
                0x000000000000207c       0x1c /opt/devkitpro/devkitARM/bin/../lib/gcc/arm-none-eabi/12.2.0/libgcc.a(_arm_cmpdf2.o)
 .ARM.attributes
                0x0000000000002098       0x1c /opt/devkitpro/devkitARM/bin/../lib/gcc/arm-none-eabi/12.2.0/libgcc.a(_arm_unorddf2.o)
 .ARM.attributes
                0x00000000000020b4       0x1c /opt/devkitpro/devkitARM/bin/../lib/gcc/arm-none-eabi/12.2.0/libgcc.a(_arm_fixdfsi.o)
 .ARM.attributes
                0x00000000000020d0       0x1c /opt/devkitpro/devkitARM/bin/../lib/gcc/arm-none-eabi/12.2.0/libgcc.a(_aeabi_uldivmod.o)
 .ARM.attributes
                0x00000000000020ec       0x2a /opt/devkitpro/devkitARM/bin/../lib/gcc/arm-none-eabi/12.2.0/crtend.o
 .ARM.attributes
                0x0000000000002116       0x1c /opt/devkitpro/devkitARM/bin/../lib/gcc/arm-none-eabi/12.2.0/crtn.o

.debug
 *(.debug)

.line
 *(.line)

.debug_srcinfo
 *(.debug_srcinfo)

.debug_sfnames
 *(.debug_sfnames)

.debug_aranges  0x0000000000000000      0xe70
 *(.debug_aranges)
 .debug_aranges
                0x0000000000000000       0x20 ../menu/src/MainMenu.o
 .debug_aranges
                0x0000000000000020       0x20 ../menu/src/Crawler.o
 .debug_aranges
                0x0000000000000040       0x20 ../menu/src/HelpScreen.o
 .debug_aranges
                0x0000000000000060       0x20 ../menu/src/BattleScreen.o
 .debug_aranges
                0x0000000000000080       0x20 ../menu/src/CreditsScreen.o
 .debug_aranges
                0x00000000000000a0       0x20 ../menu/src/GameMenu.o
 .debug_aranges
                0x00000000000000c0       0x28 ../menu/src/Main.o
 .debug_aranges
                0x00000000000000e8       0x20 ../menu/src/Engine.o
 .debug_aranges
                0x0000000000000108       0x20 ../base3d/src/nitro/NitroGLRenderer.o
 .debug_aranges
                0x0000000000000128       0x18 ../base3d/src/Globals.o
 .debug_aranges
                0x0000000000000140       0x20 ../base3d/src/CTile3DProperties.o
 .debug_aranges
                0x0000000000000160       0x20 ../GL1Common/LoadBitmapGL1.o
 .debug_aranges
                0x0000000000000180       0x20 ../GL1Common/RendererGL1.o
 .debug_aranges
                0x00000000000001a0       0x20 ../GL1Common/Renderer_RasterizationGL1.o
 .debug_aranges
                0x00000000000001c0       0x20 ../GL1Common/Renderer_TesselationGL1.o
 .debug_aranges
                0x00000000000001e0       0x20 ../base3d/src/VisibilityStrategy.o
 .debug_aranges
                0x0000000000000200       0x20 ../../common/src/Vec.o
 .debug_aranges
                0x0000000000000220       0x20 ../../common/src/Common.o
 .debug_aranges
                0x0000000000000240       0x20 ../../common/src/MapWithCharKey.o
 .debug_aranges
                0x0000000000000260       0x20 ../../common/src/PackedFileReader.o
 .debug_aranges
                0x0000000000000280       0x20 ../base3d/src/Events.o
 .debug_aranges
                0x00000000000002a0       0x20 ../base3d/src/EDirection_Utils.o
 .debug_aranges
                0x00000000000002c0       0x20 ../SoundSystem/NullMusic.o
 .debug_aranges
                0x00000000000002e0       0x20 ../base3d/src/Dungeon.o
 .debug_aranges
                0x0000000000000300       0x20 ../menu/src/UI.o
 .debug_aranges
                0x0000000000000320       0x20 ../menu/src/HackingScreen.o
 .debug_aranges
                0x0000000000000340       0x20 ../../core/src/Derelict.o
 .debug_aranges
                0x0000000000000360       0x20 ../../core/src/Core.o
 .debug_aranges
                0x0000000000000380       0x20 ../../core/src/Parser.o
 .debug_aranges
                0x00000000000003a0       0x80 /opt/devkitpro/libnds/lib/libfilesystem.a(nitrofs.o)
 .debug_aranges
                0x0000000000000420       0x50 /opt/devkitpro/libnds/lib/libfat.a(libfat.o)
 .debug_aranges
                0x0000000000000470       0x18 /opt/devkitpro/libnds/lib/libfat.a(disc.o)
 .debug_aranges
                0x0000000000000488       0x90 /opt/devkitpro/libnds/lib/libfat.a(fatfile.o)
 .debug_aranges
                0x0000000000000518       0x78 /opt/devkitpro/libnds/lib/libfat.a(cache.o)
 .debug_aranges
                0x0000000000000590       0x70 /opt/devkitpro/libnds/lib/libfat.a(fatdir.o)
 .debug_aranges
                0x0000000000000600       0x98 /opt/devkitpro/libnds/lib/libfat.a(directory.o)
 .debug_aranges
                0x0000000000000698       0x90 /opt/devkitpro/libnds/lib/libfat.a(partition.o)
 .debug_aranges
                0x0000000000000728       0x20 /opt/devkitpro/libnds/lib/libfat.a(lock.o)
 .debug_aranges
                0x0000000000000748       0x30 /opt/devkitpro/libnds/lib/libfat.a(filetime.o)
 .debug_aranges
                0x0000000000000778       0x58 /opt/devkitpro/libnds/lib/libfat.a(file_allocation_table.o)
 .debug_aranges
                0x00000000000007d0       0x38 /opt/devkitpro/libnds/lib/libnds9.a(dynamicArray.o)
 .debug_aranges
                0x0000000000000808      0x140 /opt/devkitpro/libnds/lib/libnds9.a(videoGL.o)
 .debug_aranges
                0x0000000000000948       0x50 /opt/devkitpro/libnds/lib/libnds9.a(keys.o)
 .debug_aranges
                0x0000000000000998       0x48 /opt/devkitpro/libnds/lib/libnds9.a(dldi.o)
 .debug_aranges
                0x00000000000009e0       0x30 /opt/devkitpro/libnds/lib/libnds9.a(initSystem.o)
 .debug_aranges
                0x0000000000000a10       0x18 /opt/devkitpro/libnds/lib/libnds9.a(securearea.o)
 .debug_aranges
                0x0000000000000a28       0x50 /opt/devkitpro/libnds/lib/libnds9.a(interrupts.o)
 .debug_aranges
                0x0000000000000a78       0x28 /opt/devkitpro/libnds/lib/libnds9.a(libnds_exit.arm.o)
 .debug_aranges
                0x0000000000000aa0       0x58 /opt/devkitpro/libnds/lib/libnds9.a(card.o)
 .debug_aranges
                0x0000000000000af8       0xb0 /opt/devkitpro/libnds/lib/libnds9.a(fifosystem.o)
 .debug_aranges
                0x0000000000000ba8       0x20 /opt/devkitpro/libnds/lib/libnds9.a(dldi_stub.o)
 .debug_aranges
                0x0000000000000bc8       0x30 /opt/devkitpro/libnds/lib/libnds9.a(mpu_setup.o)
 .debug_aranges
                0x0000000000000bf8       0x28 /opt/devkitpro/libnds/lib/libnds9.a(IntrWait.o)
 .debug_aranges
                0x0000000000000c20       0x20 /opt/devkitpro/libnds/lib/libnds9.a(cpu_clock.o)
 .debug_aranges
                0x0000000000000c40       0x20 /opt/devkitpro/libnds/lib/libnds9.a(interruptDispatcher.o)
 .debug_aranges
                0x0000000000000c60       0xc8 /opt/devkitpro/libnds/lib/libnds9.a(biosCalls.o)
 .debug_aranges
                0x0000000000000d28       0x20 /opt/devkitpro/libnds/lib/libnds9.a(swiSoftReset.o)
 .debug_aranges
                0x0000000000000d48       0x48 /opt/devkitpro/libnds/lib/libnds9.a(video.o)
 .debug_aranges
                0x0000000000000d90       0x68 /opt/devkitpro/libnds/lib/libnds9.a(system.o)
 .debug_aranges
                0x0000000000000df8       0x40 /opt/devkitpro/libnds/lib/libnds9.a(sd.twl.o)
 .debug_aranges
                0x0000000000000e38       0x38 /opt/devkitpro/libnds/lib/libnds9.a(dcache.o)

.debug_pubnames
 *(.debug_pubnames)

.debug_info     0x0000000000000000    0x3b7c9
 *(.debug_info)
 .debug_info    0x0000000000000000      0x984 ../menu/src/MainMenu.o
 .debug_info    0x0000000000000984     0x18dd ../menu/src/Crawler.o
 .debug_info    0x0000000000002261      0x8ea ../menu/src/HelpScreen.o
 .debug_info    0x0000000000002b4b      0x61f ../menu/src/BattleScreen.o
 .debug_info    0x000000000000316a     0x10cc ../menu/src/CreditsScreen.o
 .debug_info    0x0000000000004236      0xbdb ../menu/src/GameMenu.o
 .debug_info    0x0000000000004e11      0x444 ../menu/src/Main.o
 .debug_info    0x0000000000005255      0x75e ../menu/src/Engine.o
 .debug_info    0x00000000000059b3      0x919 ../base3d/src/nitro/NitroGLRenderer.o
 .debug_info    0x00000000000062cc      0x275 ../base3d/src/Globals.o
 .debug_info    0x0000000000006541      0x3dd ../base3d/src/CTile3DProperties.o
 .debug_info    0x000000000000691e     0x1123 ../GL1Common/LoadBitmapGL1.o
 .debug_info    0x0000000000007a41     0x2db2 ../GL1Common/RendererGL1.o
 .debug_info    0x000000000000a7f3     0x4025 ../GL1Common/Renderer_RasterizationGL1.o
 .debug_info    0x000000000000e818     0x6343 ../GL1Common/Renderer_TesselationGL1.o
 .debug_info    0x0000000000014b5b      0x762 ../base3d/src/VisibilityStrategy.o
 .debug_info    0x00000000000152bd      0x1cd ../../common/src/Vec.o
 .debug_info    0x000000000001548a      0x346 ../../common/src/Common.o
 .debug_info    0x00000000000157d0      0x1cf ../../common/src/MapWithCharKey.o
 .debug_info    0x000000000001599f     0x1539 ../../common/src/PackedFileReader.o
 .debug_info    0x0000000000016ed8      0xe41 ../base3d/src/Events.o
 .debug_info    0x0000000000017d19      0x354 ../base3d/src/EDirection_Utils.o
 .debug_info    0x000000000001806d       0xa3 ../SoundSystem/NullMusic.o
 .debug_info    0x0000000000018110     0x122f ../base3d/src/Dungeon.o
 .debug_info    0x000000000001933f      0xdb4 ../menu/src/UI.o
 .debug_info    0x000000000001a0f3      0x766 ../menu/src/HackingScreen.o
 .debug_info    0x000000000001a859     0x1e1c ../../core/src/Derelict.o
 .debug_info    0x000000000001c675     0x1d6b ../../core/src/Core.o
 .debug_info    0x000000000001e3e0      0x370 ../../core/src/Parser.o
 .debug_info    0x000000000001e750     0x2897 /opt/devkitpro/libnds/lib/libfilesystem.a(nitrofs.o)
 .debug_info    0x0000000000020fe7     0x204d /opt/devkitpro/libnds/lib/libfat.a(libfat.o)
 .debug_info    0x0000000000023034      0x260 /opt/devkitpro/libnds/lib/libfat.a(disc.o)
 .debug_info    0x0000000000023294     0x3783 /opt/devkitpro/libnds/lib/libfat.a(fatfile.o)
 .debug_info    0x0000000000026a17     0x12da /opt/devkitpro/libnds/lib/libfat.a(cache.o)
 .debug_info    0x0000000000027cf1     0x2833 /opt/devkitpro/libnds/lib/libfat.a(fatdir.o)
 .debug_info    0x000000000002a524     0x2fcb /opt/devkitpro/libnds/lib/libfat.a(directory.o)
 .debug_info    0x000000000002d4ef     0x2c74 /opt/devkitpro/libnds/lib/libfat.a(partition.o)
 .debug_info    0x0000000000030163      0x11d /opt/devkitpro/libnds/lib/libfat.a(lock.o)
 .debug_info    0x0000000000030280      0x289 /opt/devkitpro/libnds/lib/libfat.a(filetime.o)
 .debug_info    0x0000000000030509      0xf1c /opt/devkitpro/libnds/lib/libfat.a(file_allocation_table.o)
 .debug_info    0x0000000000031425      0x2ae /opt/devkitpro/libnds/lib/libnds9.a(dynamicArray.o)
 .debug_info    0x00000000000316d3     0x3895 /opt/devkitpro/libnds/lib/libnds9.a(videoGL.o)
 .debug_info    0x0000000000034f68      0x43b /opt/devkitpro/libnds/lib/libnds9.a(keys.o)
 .debug_info    0x00000000000353a3      0xb9a /opt/devkitpro/libnds/lib/libnds9.a(dldi.o)
 .debug_info    0x0000000000035f3d     0x113e /opt/devkitpro/libnds/lib/libnds9.a(initSystem.o)
 .debug_info    0x000000000003707b       0x5a /opt/devkitpro/libnds/lib/libnds9.a(securearea.o)
 .debug_info    0x00000000000370d5      0x68d /opt/devkitpro/libnds/lib/libnds9.a(interrupts.o)
 .debug_info    0x0000000000037762      0x367 /opt/devkitpro/libnds/lib/libnds9.a(libnds_exit.arm.o)
 .debug_info    0x0000000000037ac9      0x687 /opt/devkitpro/libnds/lib/libnds9.a(card.o)
 .debug_info    0x0000000000038150     0x183f /opt/devkitpro/libnds/lib/libnds9.a(fifosystem.o)
 .debug_info    0x000000000003998f       0x26 /opt/devkitpro/libnds/lib/libnds9.a(dldi_stub.o)
 .debug_info    0x00000000000399b5       0x23 /opt/devkitpro/libnds/lib/libnds9.a(mpu_setup.o)
 .debug_info    0x00000000000399d8       0x23 /opt/devkitpro/libnds/lib/libnds9.a(IntrWait.o)
 .debug_info    0x00000000000399fb       0x24 /opt/devkitpro/libnds/lib/libnds9.a(cpu_clock.o)
 .debug_info    0x0000000000039a1f       0x25 /opt/devkitpro/libnds/lib/libnds9.a(interruptDispatcher.o)
 .debug_info    0x0000000000039a44       0x23 /opt/devkitpro/libnds/lib/libnds9.a(biosCalls.o)
 .debug_info    0x0000000000039a67       0x24 /opt/devkitpro/libnds/lib/libnds9.a(swiSoftReset.o)
 .debug_info    0x0000000000039a8b      0x790 /opt/devkitpro/libnds/lib/libnds9.a(video.o)
 .debug_info    0x000000000003a21b      0xa76 /opt/devkitpro/libnds/lib/libnds9.a(system.o)
 .debug_info    0x000000000003ac91      0xb15 /opt/devkitpro/libnds/lib/libnds9.a(sd.twl.o)
 .debug_info    0x000000000003b7a6       0x23 /opt/devkitpro/libnds/lib/libnds9.a(dcache.o)

.debug_abbrev   0x0000000000000000     0x95e0
 *(.debug_abbrev)
 .debug_abbrev  0x0000000000000000      0x22f ../menu/src/MainMenu.o
 .debug_abbrev  0x000000000000022f      0x3bd ../menu/src/Crawler.o
 .debug_abbrev  0x00000000000005ec      0x269 ../menu/src/HelpScreen.o
 .debug_abbrev  0x0000000000000855      0x20f ../menu/src/BattleScreen.o
 .debug_abbrev  0x0000000000000a64      0x24f ../menu/src/CreditsScreen.o
 .debug_abbrev  0x0000000000000cb3      0x28f ../menu/src/GameMenu.o
 .debug_abbrev  0x0000000000000f42      0x2a4 ../menu/src/Main.o
 .debug_abbrev  0x00000000000011e6      0x220 ../menu/src/Engine.o
 .debug_abbrev  0x0000000000001406      0x2e3 ../base3d/src/nitro/NitroGLRenderer.o
 .debug_abbrev  0x00000000000016e9       0xb1 ../base3d/src/Globals.o
 .debug_abbrev  0x000000000000179a      0x195 ../base3d/src/CTile3DProperties.o
 .debug_abbrev  0x000000000000192f      0x411 ../GL1Common/LoadBitmapGL1.o
 .debug_abbrev  0x0000000000001d40      0x61d ../GL1Common/RendererGL1.o
 .debug_abbrev  0x000000000000235d      0x4c8 ../GL1Common/Renderer_RasterizationGL1.o
 .debug_abbrev  0x0000000000002825      0x50b ../GL1Common/Renderer_TesselationGL1.o
 .debug_abbrev  0x0000000000002d30      0x28d ../base3d/src/VisibilityStrategy.o
 .debug_abbrev  0x0000000000002fbd       0xac ../../common/src/Vec.o
 .debug_abbrev  0x0000000000003069      0x1f1 ../../common/src/Common.o
 .debug_abbrev  0x000000000000325a      0x140 ../../common/src/MapWithCharKey.o
 .debug_abbrev  0x000000000000339a      0x2e7 ../../common/src/PackedFileReader.o
 .debug_abbrev  0x0000000000003681      0x326 ../base3d/src/Events.o
 .debug_abbrev  0x00000000000039a7      0x154 ../base3d/src/EDirection_Utils.o
 .debug_abbrev  0x0000000000003afb       0xa9 ../SoundSystem/NullMusic.o
 .debug_abbrev  0x0000000000003ba4      0x2b2 ../base3d/src/Dungeon.o
 .debug_abbrev  0x0000000000003e56      0x221 ../menu/src/UI.o
 .debug_abbrev  0x0000000000004077      0x1e0 ../menu/src/HackingScreen.o
 .debug_abbrev  0x0000000000004257      0x30d ../../core/src/Derelict.o
 .debug_abbrev  0x0000000000004564      0x54d ../../core/src/Core.o
 .debug_abbrev  0x0000000000004ab1      0x123 ../../core/src/Parser.o
 .debug_abbrev  0x0000000000004bd4      0x4fd /opt/devkitpro/libnds/lib/libfilesystem.a(nitrofs.o)
 .debug_abbrev  0x00000000000050d1      0x3e2 /opt/devkitpro/libnds/lib/libfat.a(libfat.o)
 .debug_abbrev  0x00000000000054b3       0xd8 /opt/devkitpro/libnds/lib/libfat.a(disc.o)
 .debug_abbrev  0x000000000000558b      0x507 /opt/devkitpro/libnds/lib/libfat.a(fatfile.o)
 .debug_abbrev  0x0000000000005a92      0x3e5 /opt/devkitpro/libnds/lib/libfat.a(cache.o)
 .debug_abbrev  0x0000000000005e77      0x3e0 /opt/devkitpro/libnds/lib/libfat.a(fatdir.o)
 .debug_abbrev  0x0000000000006257      0x509 /opt/devkitpro/libnds/lib/libfat.a(directory.o)
 .debug_abbrev  0x0000000000006760      0x564 /opt/devkitpro/libnds/lib/libfat.a(partition.o)
 .debug_abbrev  0x0000000000006cc4       0x92 /opt/devkitpro/libnds/lib/libfat.a(lock.o)
 .debug_abbrev  0x0000000000006d56       0xd5 /opt/devkitpro/libnds/lib/libfat.a(filetime.o)
 .debug_abbrev  0x0000000000006e2b      0x31a /opt/devkitpro/libnds/lib/libfat.a(file_allocation_table.o)
 .debug_abbrev  0x0000000000007145      0x158 /opt/devkitpro/libnds/lib/libnds9.a(dynamicArray.o)
 .debug_abbrev  0x000000000000729d      0x5d2 /opt/devkitpro/libnds/lib/libnds9.a(videoGL.o)
 .debug_abbrev  0x000000000000786f      0x1a7 /opt/devkitpro/libnds/lib/libnds9.a(keys.o)
 .debug_abbrev  0x0000000000007a16      0x2f8 /opt/devkitpro/libnds/lib/libnds9.a(dldi.o)
 .debug_abbrev  0x0000000000007d0e      0x3e1 /opt/devkitpro/libnds/lib/libnds9.a(initSystem.o)
 .debug_abbrev  0x00000000000080ef       0x47 /opt/devkitpro/libnds/lib/libnds9.a(securearea.o)
 .debug_abbrev  0x0000000000008136      0x2da /opt/devkitpro/libnds/lib/libnds9.a(interrupts.o)
 .debug_abbrev  0x0000000000008410      0x1ad /opt/devkitpro/libnds/lib/libnds9.a(libnds_exit.arm.o)
 .debug_abbrev  0x00000000000085bd      0x25a /opt/devkitpro/libnds/lib/libnds9.a(card.o)
 .debug_abbrev  0x0000000000008817      0x4bb /opt/devkitpro/libnds/lib/libnds9.a(fifosystem.o)
 .debug_abbrev  0x0000000000008cd2       0x14 /opt/devkitpro/libnds/lib/libnds9.a(dldi_stub.o)
 .debug_abbrev  0x0000000000008ce6       0x12 /opt/devkitpro/libnds/lib/libnds9.a(mpu_setup.o)
 .debug_abbrev  0x0000000000008cf8       0x12 /opt/devkitpro/libnds/lib/libnds9.a(IntrWait.o)
 .debug_abbrev  0x0000000000008d0a       0x14 /opt/devkitpro/libnds/lib/libnds9.a(cpu_clock.o)
 .debug_abbrev  0x0000000000008d1e       0x14 /opt/devkitpro/libnds/lib/libnds9.a(interruptDispatcher.o)
 .debug_abbrev  0x0000000000008d32       0x12 /opt/devkitpro/libnds/lib/libnds9.a(biosCalls.o)
 .debug_abbrev  0x0000000000008d44       0x14 /opt/devkitpro/libnds/lib/libnds9.a(swiSoftReset.o)
 .debug_abbrev  0x0000000000008d58      0x24c /opt/devkitpro/libnds/lib/libnds9.a(video.o)
 .debug_abbrev  0x0000000000008fa4      0x31f /opt/devkitpro/libnds/lib/libnds9.a(system.o)
 .debug_abbrev  0x00000000000092c3      0x30b /opt/devkitpro/libnds/lib/libnds9.a(sd.twl.o)
 .debug_abbrev  0x00000000000095ce       0x12 /opt/devkitpro/libnds/lib/libnds9.a(dcache.o)

.debug_line     0x0000000000000000    0x2056b
 *(.debug_line)
 .debug_line    0x0000000000000000      0x6cd ../menu/src/MainMenu.o
 .debug_line    0x00000000000006cd      0xe7e ../menu/src/Crawler.o
 .debug_line    0x000000000000154b      0x54a ../menu/src/HelpScreen.o
 .debug_line    0x0000000000001a95      0x3f2 ../menu/src/BattleScreen.o
 .debug_line    0x0000000000001e87      0x640 ../menu/src/CreditsScreen.o
 .debug_line    0x00000000000024c7      0x7e1 ../menu/src/GameMenu.o
 .debug_line    0x0000000000002ca8      0x24c ../menu/src/Main.o
 .debug_line    0x0000000000002ef4      0x512 ../menu/src/Engine.o
 .debug_line    0x0000000000003406      0x435 ../base3d/src/nitro/NitroGLRenderer.o
 .debug_line    0x000000000000383b      0x126 ../base3d/src/Globals.o
 .debug_line    0x0000000000003961      0x315 ../base3d/src/CTile3DProperties.o
 .debug_line    0x0000000000003c76      0x884 ../GL1Common/LoadBitmapGL1.o
 .debug_line    0x00000000000044fa     0x1d66 ../GL1Common/RendererGL1.o
 .debug_line    0x0000000000006260     0x1ef2 ../GL1Common/Renderer_RasterizationGL1.o
 .debug_line    0x0000000000008152     0x2f4b ../GL1Common/Renderer_TesselationGL1.o
 .debug_line    0x000000000000b09d      0x4b1 ../base3d/src/VisibilityStrategy.o
 .debug_line    0x000000000000b54e      0x142 ../../common/src/Vec.o
 .debug_line    0x000000000000b690      0x32a ../../common/src/Common.o
 .debug_line    0x000000000000b9ba      0x1b7 ../../common/src/MapWithCharKey.o
 .debug_line    0x000000000000bb71      0x494 ../../common/src/PackedFileReader.o
 .debug_line    0x000000000000c005      0x645 ../base3d/src/Events.o
 .debug_line    0x000000000000c64a      0x222 ../base3d/src/EDirection_Utils.o
 .debug_line    0x000000000000c86c       0x58 ../SoundSystem/NullMusic.o
 .debug_line    0x000000000000c8c4      0xc1b ../base3d/src/Dungeon.o
 .debug_line    0x000000000000d4df      0x456 ../menu/src/UI.o
 .debug_line    0x000000000000d935      0x622 ../menu/src/HackingScreen.o
 .debug_line    0x000000000000df57      0xc7b ../../core/src/Derelict.o
 .debug_line    0x000000000000ebd2     0x136d ../../core/src/Core.o
 .debug_line    0x000000000000ff3f      0x231 ../../core/src/Parser.o
 .debug_line    0x0000000000010170     0x101a /opt/devkitpro/libnds/lib/libfilesystem.a(nitrofs.o)
 .debug_line    0x000000000001118a      0x784 /opt/devkitpro/libnds/lib/libfat.a(libfat.o)
 .debug_line    0x000000000001190e      0x141 /opt/devkitpro/libnds/lib/libfat.a(disc.o)
 .debug_line    0x0000000000011a4f     0x2050 /opt/devkitpro/libnds/lib/libfat.a(fatfile.o)
 .debug_line    0x0000000000013a9f      0xb85 /opt/devkitpro/libnds/lib/libfat.a(cache.o)
 .debug_line    0x0000000000014624     0x1043 /opt/devkitpro/libnds/lib/libfat.a(fatdir.o)
 .debug_line    0x0000000000015667     0x2028 /opt/devkitpro/libnds/lib/libfat.a(directory.o)
 .debug_line    0x000000000001768f      0xec2 /opt/devkitpro/libnds/lib/libfat.a(partition.o)
 .debug_line    0x0000000000018551       0x87 /opt/devkitpro/libnds/lib/libfat.a(lock.o)
 .debug_line    0x00000000000185d8      0x276 /opt/devkitpro/libnds/lib/libfat.a(filetime.o)
 .debug_line    0x000000000001884e      0x895 /opt/devkitpro/libnds/lib/libfat.a(file_allocation_table.o)
 .debug_line    0x00000000000190e3      0x2db /opt/devkitpro/libnds/lib/libnds9.a(dynamicArray.o)
 .debug_line    0x00000000000193be     0x2b2f /opt/devkitpro/libnds/lib/libnds9.a(videoGL.o)
 .debug_line    0x000000000001beed      0x399 /opt/devkitpro/libnds/lib/libnds9.a(keys.o)
 .debug_line    0x000000000001c286      0x72f /opt/devkitpro/libnds/lib/libnds9.a(dldi.o)
 .debug_line    0x000000000001c9b5      0x597 /opt/devkitpro/libnds/lib/libnds9.a(initSystem.o)
 .debug_line    0x000000000001cf4c       0x8f /opt/devkitpro/libnds/lib/libnds9.a(securearea.o)
 .debug_line    0x000000000001cfdb      0x54c /opt/devkitpro/libnds/lib/libnds9.a(interrupts.o)
 .debug_line    0x000000000001d527      0x23b /opt/devkitpro/libnds/lib/libnds9.a(libnds_exit.arm.o)
 .debug_line    0x000000000001d762      0x645 /opt/devkitpro/libnds/lib/libnds9.a(card.o)
 .debug_line    0x000000000001dda7     0x14f5 /opt/devkitpro/libnds/lib/libnds9.a(fifosystem.o)
 .debug_line    0x000000000001f29c       0x4c /opt/devkitpro/libnds/lib/libnds9.a(dldi_stub.o)
 .debug_line    0x000000000001f2e8       0xe8 /opt/devkitpro/libnds/lib/libnds9.a(mpu_setup.o)
 .debug_line    0x000000000001f3d0       0x74 /opt/devkitpro/libnds/lib/libnds9.a(IntrWait.o)
 .debug_line    0x000000000001f444       0x5c /opt/devkitpro/libnds/lib/libnds9.a(cpu_clock.o)
 .debug_line    0x000000000001f4a0       0x80 /opt/devkitpro/libnds/lib/libnds9.a(interruptDispatcher.o)
 .debug_line    0x000000000001f520      0x1b0 /opt/devkitpro/libnds/lib/libnds9.a(biosCalls.o)
 .debug_line    0x000000000001f6d0       0x57 /opt/devkitpro/libnds/lib/libnds9.a(swiSoftReset.o)
 .debug_line    0x000000000001f727      0x4b5 /opt/devkitpro/libnds/lib/libnds9.a(video.o)
 .debug_line    0x000000000001fbdc      0x4dc /opt/devkitpro/libnds/lib/libnds9.a(system.o)
 .debug_line    0x00000000000200b8      0x41d /opt/devkitpro/libnds/lib/libnds9.a(sd.twl.o)
 .debug_line    0x00000000000204d5       0x96 /opt/devkitpro/libnds/lib/libnds9.a(dcache.o)

.debug_frame    0x0000000000000000     0x3508
 *(.debug_frame)
 .debug_frame   0x0000000000000000       0xb8 ../menu/src/MainMenu.o
 .debug_frame   0x00000000000000b8       0xcc ../menu/src/Crawler.o
 .debug_frame   0x0000000000000184       0x9c ../menu/src/HelpScreen.o
 .debug_frame   0x0000000000000220       0xa0 ../menu/src/BattleScreen.o
 .debug_frame   0x00000000000002c0       0xac ../menu/src/CreditsScreen.o
 .debug_frame   0x000000000000036c       0xa4 ../menu/src/GameMenu.o
 .debug_frame   0x0000000000000410       0x68 ../menu/src/Main.o
 .debug_frame   0x0000000000000478       0x6c ../menu/src/Engine.o
 .debug_frame   0x00000000000004e4       0x60 ../base3d/src/nitro/NitroGLRenderer.o
 .debug_frame   0x0000000000000544       0x34 ../base3d/src/CTile3DProperties.o
 .debug_frame   0x0000000000000578       0xf4 ../GL1Common/LoadBitmapGL1.o
 .debug_frame   0x000000000000066c      0x1d0 ../GL1Common/RendererGL1.o
 .debug_frame   0x000000000000083c      0x1a4 ../GL1Common/Renderer_RasterizationGL1.o
 .debug_frame   0x00000000000009e0      0x1d8 ../GL1Common/Renderer_TesselationGL1.o
 .debug_frame   0x0000000000000bb8       0x84 ../base3d/src/VisibilityStrategy.o
 .debug_frame   0x0000000000000c3c       0x40 ../../common/src/Vec.o
 .debug_frame   0x0000000000000c7c       0x9c ../../common/src/Common.o
 .debug_frame   0x0000000000000d18       0x40 ../../common/src/MapWithCharKey.o
 .debug_frame   0x0000000000000d58       0xb8 ../../common/src/PackedFileReader.o
 .debug_frame   0x0000000000000e10      0x134 ../base3d/src/Events.o
 .debug_frame   0x0000000000000f44       0x80 ../base3d/src/EDirection_Utils.o
 .debug_frame   0x0000000000000fc4       0x60 ../SoundSystem/NullMusic.o
 .debug_frame   0x0000000000001024       0x80 ../base3d/src/Dungeon.o
 .debug_frame   0x00000000000010a4      0x10c ../menu/src/UI.o
 .debug_frame   0x00000000000011b0       0x9c ../menu/src/HackingScreen.o
 .debug_frame   0x000000000000124c      0x270 ../../core/src/Derelict.o
 .debug_frame   0x00000000000014bc      0x4ec ../../core/src/Core.o
 .debug_frame   0x00000000000019a8       0x2c ../../core/src/Parser.o
 .debug_frame   0x00000000000019d4      0x1c8 /opt/devkitpro/libnds/lib/libfilesystem.a(nitrofs.o)
 .debug_frame   0x0000000000001b9c      0x100 /opt/devkitpro/libnds/lib/libfat.a(libfat.o)
 .debug_frame   0x0000000000001c9c      0x234 /opt/devkitpro/libnds/lib/libfat.a(fatfile.o)
 .debug_frame   0x0000000000001ed0      0x1bc /opt/devkitpro/libnds/lib/libfat.a(cache.o)
 .debug_frame   0x000000000000208c      0x17c /opt/devkitpro/libnds/lib/libfat.a(fatdir.o)
 .debug_frame   0x0000000000002208      0x260 /opt/devkitpro/libnds/lib/libfat.a(directory.o)
 .debug_frame   0x0000000000002468      0x1cc /opt/devkitpro/libnds/lib/libfat.a(partition.o)
 .debug_frame   0x0000000000002634       0x50 /opt/devkitpro/libnds/lib/libfat.a(lock.o)
 .debug_frame   0x0000000000002684       0x58 /opt/devkitpro/libnds/lib/libfat.a(filetime.o)
 .debug_frame   0x00000000000026dc      0x120 /opt/devkitpro/libnds/lib/libfat.a(file_allocation_table.o)
 .debug_frame   0x00000000000027fc       0x70 /opt/devkitpro/libnds/lib/libnds9.a(dynamicArray.o)
 .debug_frame   0x000000000000286c      0x458 /opt/devkitpro/libnds/lib/libnds9.a(videoGL.o)
 .debug_frame   0x0000000000002cc4       0x8c /opt/devkitpro/libnds/lib/libnds9.a(keys.o)
 .debug_frame   0x0000000000002d50       0xa0 /opt/devkitpro/libnds/lib/libnds9.a(dldi.o)
 .debug_frame   0x0000000000002df0       0x5c /opt/devkitpro/libnds/lib/libnds9.a(initSystem.o)
 .debug_frame   0x0000000000002e4c       0xa4 /opt/devkitpro/libnds/lib/libnds9.a(interrupts.o)
 .debug_frame   0x0000000000002ef0       0x38 /opt/devkitpro/libnds/lib/libnds9.a(libnds_exit.arm.o)
 .debug_frame   0x0000000000002f28       0xf8 /opt/devkitpro/libnds/lib/libnds9.a(card.o)
 .debug_frame   0x0000000000003020      0x294 /opt/devkitpro/libnds/lib/libnds9.a(fifosystem.o)
 .debug_frame   0x00000000000032b4       0xbc /opt/devkitpro/libnds/lib/libnds9.a(video.o)
 .debug_frame   0x0000000000003370       0xf8 /opt/devkitpro/libnds/lib/libnds9.a(system.o)
 .debug_frame   0x0000000000003468       0xa0 /opt/devkitpro/libnds/lib/libnds9.a(sd.twl.o)

.debug_str      0x0000000000000000     0x8478
 *(.debug_str)
 .debug_str     0x0000000000000000      0x621 ../menu/src/MainMenu.o
                                        0x6a5 (size before relaxing)
 .debug_str     0x0000000000000621      0x80f ../menu/src/Crawler.o
                                        0xdca (size before relaxing)
 .debug_str     0x0000000000000e30      0x1a2 ../menu/src/HelpScreen.o
                                        0x69d (size before relaxing)
 .debug_str     0x0000000000000fd2      0x10c ../menu/src/BattleScreen.o
                                        0x645 (size before relaxing)
 .debug_str     0x00000000000010de      0x140 ../menu/src/CreditsScreen.o
                                        0x72f (size before relaxing)
 .debug_str     0x000000000000121e      0x1f0 ../menu/src/GameMenu.o
                                        0x8a6 (size before relaxing)
 .debug_str     0x000000000000140e      0x112 ../menu/src/Main.o
                                        0x33c (size before relaxing)
 .debug_str     0x0000000000001520      0x1a7 ../menu/src/Engine.o
                                        0xa46 (size before relaxing)
 .debug_str     0x00000000000016c7      0x487 ../base3d/src/nitro/NitroGLRenderer.o
                                        0xa05 (size before relaxing)
 .debug_str     0x0000000000001b4e       0x2a ../base3d/src/Globals.o
                                        0x3e1 (size before relaxing)
 .debug_str     0x0000000000001b78      0x21d ../base3d/src/CTile3DProperties.o
                                        0x3cc (size before relaxing)
 .debug_str     0x0000000000001d95      0x3fc ../GL1Common/LoadBitmapGL1.o
                                        0x95d (size before relaxing)
 .debug_str     0x0000000000002191      0x5fc ../GL1Common/RendererGL1.o
                                       0x11a9 (size before relaxing)
 .debug_str     0x000000000000278d      0x311 ../GL1Common/Renderer_RasterizationGL1.o
                                        0x99c (size before relaxing)
 .debug_str     0x0000000000002a9e       0xd6 ../GL1Common/Renderer_TesselationGL1.o
                                        0x8da (size before relaxing)
 .debug_str     0x0000000000002b74      0x120 ../base3d/src/VisibilityStrategy.o
                                        0x33d (size before relaxing)
 .debug_str     0x0000000000002c94       0x17 ../../common/src/Vec.o
                                        0x183 (size before relaxing)
 .debug_str     0x0000000000002cab       0x90 ../../common/src/Common.o
                                        0x1e9 (size before relaxing)
 .debug_str     0x0000000000002d3b       0x22 ../../common/src/MapWithCharKey.o
                                        0x1a5 (size before relaxing)
 .debug_str     0x0000000000002d5d      0x445 ../../common/src/PackedFileReader.o
                                        0x6c5 (size before relaxing)
 .debug_str     0x00000000000031a2       0xf3 ../base3d/src/Events.o
                                        0x7f3 (size before relaxing)
 .debug_str     0x0000000000003295       0x3b ../base3d/src/EDirection_Utils.o
                                        0x1dc (size before relaxing)
 .debug_str     0x00000000000032d0       0x36 ../SoundSystem/NullMusic.o
                                         0xe0 (size before relaxing)
 .debug_str     0x0000000000003306      0x1c6 ../base3d/src/Dungeon.o
                                        0x9d7 (size before relaxing)
 .debug_str     0x00000000000034cc       0x9f ../menu/src/UI.o
                                        0x46a (size before relaxing)
 .debug_str     0x000000000000356b       0xae ../menu/src/HackingScreen.o
                                        0x5fa (size before relaxing)
 .debug_str     0x0000000000003619      0x2e2 ../../core/src/Derelict.o
                                        0x614 (size before relaxing)
 .debug_str     0x00000000000038fb      0x2ce ../../core/src/Core.o
                                        0x7d1 (size before relaxing)
 .debug_str     0x0000000000003bc9       0x18 ../../core/src/Parser.o
                                        0x224 (size before relaxing)
 .debug_str     0x0000000000003be1      0x80a /opt/devkitpro/libnds/lib/libfilesystem.a(nitrofs.o)
                                        0xed1 (size before relaxing)
 .debug_str     0x00000000000043eb      0x56f /opt/devkitpro/libnds/lib/libfat.a(libfat.o)
                                        0xf42 (size before relaxing)
 .debug_str     0x000000000000495a       0x4f /opt/devkitpro/libnds/lib/libfat.a(disc.o)
                                        0x313 (size before relaxing)
 .debug_str     0x00000000000049a9      0x605 /opt/devkitpro/libnds/lib/libfat.a(fatfile.o)
                                       0x116f (size before relaxing)
 .debug_str     0x0000000000004fae      0x1ab /opt/devkitpro/libnds/lib/libfat.a(cache.o)
                                        0x650 (size before relaxing)
 .debug_str     0x0000000000005159      0x27a /opt/devkitpro/libnds/lib/libfat.a(fatdir.o)
                                       0x10bd (size before relaxing)
 .debug_str     0x00000000000053d3      0x550 /opt/devkitpro/libnds/lib/libfat.a(directory.o)
                                        0xfe9 (size before relaxing)
 .debug_str     0x0000000000005923      0x4f7 /opt/devkitpro/libnds/lib/libfat.a(partition.o)
                                       0x13ae (size before relaxing)
 .debug_str     0x0000000000005e1a       0x55 /opt/devkitpro/libnds/lib/libfat.a(lock.o)
                                        0x216 (size before relaxing)
 .debug_str     0x0000000000005e6f       0x7a /opt/devkitpro/libnds/lib/libfat.a(filetime.o)
                                        0x2c5 (size before relaxing)
 .debug_str     0x0000000000005ee9       0xc8 /opt/devkitpro/libnds/lib/libfat.a(file_allocation_table.o)
                                        0x71f (size before relaxing)
 .debug_str     0x0000000000005fb1      0x18f /opt/devkitpro/libnds/lib/libnds9.a(dynamicArray.o)
                                        0x2a5 (size before relaxing)
 .debug_str     0x0000000000006140      0xddc /opt/devkitpro/libnds/lib/libnds9.a(videoGL.o)
                                       0x1740 (size before relaxing)
 .debug_str     0x0000000000006f1c      0x170 /opt/devkitpro/libnds/lib/libnds9.a(keys.o)
                                        0x420 (size before relaxing)
 .debug_str     0x000000000000708c      0x220 /opt/devkitpro/libnds/lib/libnds9.a(dldi.o)
                                        0x799 (size before relaxing)
 .debug_str     0x00000000000072ac      0x396 /opt/devkitpro/libnds/lib/libnds9.a(initSystem.o)
                                        0xb81 (size before relaxing)
 .debug_str     0x0000000000007642       0x7f /opt/devkitpro/libnds/lib/libnds9.a(securearea.o)
                                        0x16e (size before relaxing)
 .debug_str     0x00000000000076c1      0x197 /opt/devkitpro/libnds/lib/libnds9.a(interrupts.o)
                                        0x496 (size before relaxing)
 .debug_str     0x0000000000007858      0x115 /opt/devkitpro/libnds/lib/libnds9.a(libnds_exit.arm.o)
                                        0x3e5 (size before relaxing)
 .debug_str     0x000000000000796d       0xea /opt/devkitpro/libnds/lib/libnds9.a(card.o)
                                        0x2fb (size before relaxing)
 .debug_str     0x0000000000007a57      0x445 /opt/devkitpro/libnds/lib/libnds9.a(fifosystem.o)
                                        0x8a9 (size before relaxing)
 .debug_str     0x0000000000007e9c       0x18 /opt/devkitpro/libnds/lib/libnds9.a(dldi_stub.o)
                                         0x6c (size before relaxing)
 .debug_str     0x0000000000007eb4        0xc /opt/devkitpro/libnds/lib/libnds9.a(mpu_setup.o)
                                         0x6c (size before relaxing)
 .debug_str     0x0000000000007ec0        0xb /opt/devkitpro/libnds/lib/libnds9.a(IntrWait.o)
                                         0x6b (size before relaxing)
 .debug_str     0x0000000000007ecb        0xc /opt/devkitpro/libnds/lib/libnds9.a(cpu_clock.o)
                                         0x6c (size before relaxing)
 .debug_str     0x0000000000007ed7       0x16 /opt/devkitpro/libnds/lib/libnds9.a(interruptDispatcher.o)
                                         0x76 (size before relaxing)
 .debug_str     0x0000000000007eed        0xc /opt/devkitpro/libnds/lib/libnds9.a(biosCalls.o)
                                         0x6c (size before relaxing)
 .debug_str     0x0000000000007ef9        0xf /opt/devkitpro/libnds/lib/libnds9.a(swiSoftReset.o)
                                         0x6f (size before relaxing)
 .debug_str     0x0000000000007f08       0xb8 /opt/devkitpro/libnds/lib/libnds9.a(video.o)
                                        0xc53 (size before relaxing)
 .debug_str     0x0000000000007fc0      0x358 /opt/devkitpro/libnds/lib/libnds9.a(system.o)
                                        0x798 (size before relaxing)
 .debug_str     0x0000000000008318      0x157 /opt/devkitpro/libnds/lib/libnds9.a(sd.twl.o)
                                        0x821 (size before relaxing)
 .debug_str     0x000000000000846f        0x9 /opt/devkitpro/libnds/lib/libnds9.a(dcache.o)
                                         0x69 (size before relaxing)

.debug_loc      0x0000000000000000     0xdcc3
 *(.debug_loc)
 .debug_loc     0x0000000000000000     0x1783 /opt/devkitpro/libnds/lib/libfilesystem.a(nitrofs.o)
 .debug_loc     0x0000000000001783      0x705 /opt/devkitpro/libnds/lib/libfat.a(libfat.o)
 .debug_loc     0x0000000000001e88     0x3adb /opt/devkitpro/libnds/lib/libfat.a(fatfile.o)
 .debug_loc     0x0000000000005963     0x16d7 /opt/devkitpro/libnds/lib/libfat.a(cache.o)
 .debug_loc     0x000000000000703a     0x1008 /opt/devkitpro/libnds/lib/libfat.a(fatdir.o)
 .debug_loc     0x0000000000008042     0x3b6f /opt/devkitpro/libnds/lib/libfat.a(directory.o)
 .debug_loc     0x000000000000bbb1     0x132a /opt/devkitpro/libnds/lib/libfat.a(partition.o)
 .debug_loc     0x000000000000cedb       0x4a /opt/devkitpro/libnds/lib/libfat.a(filetime.o)
 .debug_loc     0x000000000000cf25      0xd9e /opt/devkitpro/libnds/lib/libfat.a(file_allocation_table.o)

.debug_macinfo
 *(.debug_macinfo)

.debug_weaknames
 *(.debug_weaknames)

.debug_funcnames
 *(.debug_funcnames)

.debug_typenames
 *(.debug_typenames)

.debug_varnames
 *(.debug_varnames)

.stack          0x0000000000080000        0x0
                0x0000000000080000                _stack = .
 *(.stack)
LOAD /opt/devkitpro/devkitARM/bin/../lib/gcc/arm-none-eabi/12.2.0/../../../../arm-none-eabi/lib/ds_arm9_crt0.o
LOAD /opt/devkitpro/devkitARM/bin/../lib/gcc/arm-none-eabi/12.2.0/crti.o
LOAD /opt/devkitpro/devkitARM/bin/../lib/gcc/arm-none-eabi/12.2.0/crtbegin.o
LOAD ../menu/src/MainMenu.o
LOAD ../menu/src/Crawler.o
LOAD ../menu/src/HelpScreen.o
LOAD ../menu/src/BattleScreen.o
LOAD ../menu/src/CreditsScreen.o
LOAD ../menu/src/GameMenu.o
LOAD ../menu/src/Main.o
LOAD ../menu/src/Engine.o
LOAD ../base3d/src/nitro/NitroGLRenderer.o
LOAD ../base3d/src/Globals.o
LOAD ../base3d/src/CTile3DProperties.o
LOAD ../GL1Common/LoadBitmapGL1.o
LOAD ../GL1Common/RendererGL1.o
LOAD ../GL1Common/Renderer_RasterizationGL1.o
LOAD ../GL1Common/Renderer_TesselationGL1.o
LOAD ../base3d/src/VisibilityStrategy.o
LOAD ../../common/src/Vec.o
LOAD ../../common/src/Common.o
LOAD ../../common/src/FixP.o
LOAD ../../common/src/MapWithCharKey.o
LOAD ../../common/src/PackedFileReader.o
LOAD ../base3d/src/Events.o
LOAD ../base3d/src/EDirection_Utils.o
LOAD ../SoundSystem/NullMusic.o
LOAD ../base3d/src/Dungeon.o
LOAD ../menu/src/UI.o
LOAD ../menu/src/HackingScreen.o
LOAD ../SoundSystem/PCMAudio.o
LOAD ../../core/src/Derelict.o
LOAD ../../core/src/Core.o
LOAD ../../core/src/Parser.o
LOAD /opt/devkitpro/libnds/lib/libfilesystem.a
LOAD /opt/devkitpro/libnds/lib/libfat.a
LOAD /opt/devkitpro/libnds/lib/libnds9.a
START GROUP
LOAD /opt/devkitpro/devkitARM/bin/../lib/gcc/arm-none-eabi/12.2.0/libgcc.a
LOAD /opt/devkitpro/devkitARM/bin/../lib/gcc/arm-none-eabi/12.2.0/../../../../arm-none-eabi/lib/libg.a
LOAD /opt/devkitpro/devkitARM/bin/../lib/gcc/arm-none-eabi/12.2.0/../../../../arm-none-eabi/lib/libc.a
LOAD /opt/devkitpro/devkitARM/bin/../lib/gcc/arm-none-eabi/12.2.0/../../../../arm-none-eabi/lib/libsysbase.a
END GROUP
LOAD /opt/devkitpro/devkitARM/bin/../lib/gcc/arm-none-eabi/12.2.0/crtend.o
LOAD /opt/devkitpro/devkitARM/bin/../lib/gcc/arm-none-eabi/12.2.0/crtn.o
OUTPUT(/Users/monty/git/space-trashman-blues/gl_frontend/gl_frontend.elf elf32-littlearm)
LOAD linker stubs

.debug_loclists
                0x0000000000000000    0x13d16
 .debug_loclists
                0x0000000000000000      0x1ff ../menu/src/MainMenu.o
 .debug_loclists
                0x00000000000001ff      0x534 ../menu/src/Crawler.o
 .debug_loclists
                0x0000000000000733      0x136 ../menu/src/HelpScreen.o
 .debug_loclists
                0x0000000000000869       0x93 ../menu/src/BattleScreen.o
 .debug_loclists
                0x00000000000008fc      0x1b9 ../menu/src/CreditsScreen.o
 .debug_loclists
                0x0000000000000ab5      0x1fd ../menu/src/GameMenu.o
 .debug_loclists
                0x0000000000000cb2       0xd8 ../menu/src/Main.o
 .debug_loclists
                0x0000000000000d8a       0xfc ../menu/src/Engine.o
 .debug_loclists
                0x0000000000000e86       0x35 ../base3d/src/nitro/NitroGLRenderer.o
 .debug_loclists
                0x0000000000000ebb      0x171 ../base3d/src/CTile3DProperties.o
 .debug_loclists
                0x000000000000102c      0xbfa ../GL1Common/LoadBitmapGL1.o
 .debug_loclists
                0x0000000000001c26     0x13c0 ../GL1Common/RendererGL1.o
 .debug_loclists
                0x0000000000002fe6     0x3a15 ../GL1Common/Renderer_RasterizationGL1.o
 .debug_loclists
                0x00000000000069fb     0x628a ../GL1Common/Renderer_TesselationGL1.o
 .debug_loclists
                0x000000000000cc85      0x3a9 ../base3d/src/VisibilityStrategy.o
 .debug_loclists
                0x000000000000d02e       0x1e ../../common/src/Vec.o
 .debug_loclists
                0x000000000000d04c      0x153 ../../common/src/Common.o
 .debug_loclists
                0x000000000000d19f       0x30 ../../common/src/MapWithCharKey.o
 .debug_loclists
                0x000000000000d1cf      0x180 ../../common/src/PackedFileReader.o
 .debug_loclists
                0x000000000000d34f      0x1b8 ../base3d/src/Events.o
 .debug_loclists
                0x000000000000d507       0xd3 ../base3d/src/EDirection_Utils.o
 .debug_loclists
                0x000000000000d5da      0x6a1 ../base3d/src/Dungeon.o
 .debug_loclists
                0x000000000000dc7b      0x417 ../menu/src/UI.o
 .debug_loclists
                0x000000000000e092      0x2fd ../menu/src/HackingScreen.o
 .debug_loclists
                0x000000000000e38f      0x64f ../../core/src/Derelict.o
 .debug_loclists
                0x000000000000e9de      0xfcf ../../core/src/Core.o
 .debug_loclists
                0x000000000000f9ad       0x2c ../../core/src/Parser.o
 .debug_loclists
                0x000000000000f9d9      0x142 /opt/devkitpro/libnds/lib/libnds9.a(dynamicArray.o)
 .debug_loclists
                0x000000000000fb1b     0x25a2 /opt/devkitpro/libnds/lib/libnds9.a(videoGL.o)
 .debug_loclists
                0x00000000000120bd       0x17 /opt/devkitpro/libnds/lib/libnds9.a(keys.o)
 .debug_loclists
                0x00000000000120d4      0x26e /opt/devkitpro/libnds/lib/libnds9.a(dldi.o)
 .debug_loclists
                0x0000000000012342       0xc5 /opt/devkitpro/libnds/lib/libnds9.a(initSystem.o)
 .debug_loclists
                0x0000000000012407      0x1a5 /opt/devkitpro/libnds/lib/libnds9.a(interrupts.o)
 .debug_loclists
                0x00000000000125ac       0x48 /opt/devkitpro/libnds/lib/libnds9.a(libnds_exit.arm.o)
 .debug_loclists
                0x00000000000125f4      0x4ac /opt/devkitpro/libnds/lib/libnds9.a(card.o)
 .debug_loclists
                0x0000000000012aa0      0xe1a /opt/devkitpro/libnds/lib/libnds9.a(fifosystem.o)
 .debug_loclists
                0x00000000000138ba      0x1da /opt/devkitpro/libnds/lib/libnds9.a(video.o)
 .debug_loclists
                0x0000000000013a94      0x140 /opt/devkitpro/libnds/lib/libnds9.a(system.o)
 .debug_loclists
                0x0000000000013bd4      0x142 /opt/devkitpro/libnds/lib/libnds9.a(sd.twl.o)

.debug_rnglists
                0x0000000000000000     0x2870
 .debug_rnglists
                0x0000000000000000       0x4c ../menu/src/MainMenu.o
 .debug_rnglists
                0x000000000000004c      0x12e ../menu/src/Crawler.o
 .debug_rnglists
                0x000000000000017a       0x17 ../menu/src/HelpScreen.o
 .debug_rnglists
                0x0000000000000191       0x17 ../menu/src/BattleScreen.o
 .debug_rnglists
                0x00000000000001a8       0x27 ../menu/src/CreditsScreen.o
 .debug_rnglists
                0x00000000000001cf       0x4d ../menu/src/GameMenu.o
 .debug_rnglists
                0x000000000000021c       0x50 ../menu/src/Main.o
 .debug_rnglists
                0x000000000000026c       0x14 ../menu/src/Engine.o
 .debug_rnglists
                0x0000000000000280       0x27 ../base3d/src/nitro/NitroGLRenderer.o
 .debug_rnglists
                0x00000000000002a7       0x8f ../GL1Common/LoadBitmapGL1.o
 .debug_rnglists
                0x0000000000000336      0x34a ../GL1Common/RendererGL1.o
 .debug_rnglists
                0x0000000000000680      0x81b ../GL1Common/Renderer_RasterizationGL1.o
 .debug_rnglists
                0x0000000000000e9b      0xa95 ../GL1Common/Renderer_TesselationGL1.o
 .debug_rnglists
                0x0000000000001930       0x3c ../base3d/src/VisibilityStrategy.o
 .debug_rnglists
                0x000000000000196c       0x1c ../../common/src/Common.o
 .debug_rnglists
                0x0000000000001988       0x3a ../../common/src/PackedFileReader.o
 .debug_rnglists
                0x00000000000019c2       0x56 ../base3d/src/Events.o
 .debug_rnglists
                0x0000000000001a18       0xa1 ../base3d/src/Dungeon.o
 .debug_rnglists
                0x0000000000001ab9       0x17 ../menu/src/UI.o
 .debug_rnglists
                0x0000000000001ad0       0x55 ../menu/src/HackingScreen.o
 .debug_rnglists
                0x0000000000001b25       0xa7 ../../core/src/Derelict.o
 .debug_rnglists
                0x0000000000001bcc      0x19d ../../core/src/Core.o
 .debug_rnglists
                0x0000000000001d69       0x25 /opt/devkitpro/libnds/lib/libnds9.a(dynamicArray.o)
 .debug_rnglists
                0x0000000000001d8e      0x4d9 /opt/devkitpro/libnds/lib/libnds9.a(videoGL.o)
 .debug_rnglists
                0x0000000000002267       0x44 /opt/devkitpro/libnds/lib/libnds9.a(keys.o)
 .debug_rnglists
                0x00000000000022ab       0x33 /opt/devkitpro/libnds/lib/libnds9.a(dldi.o)
 .debug_rnglists
                0x00000000000022de       0x20 /opt/devkitpro/libnds/lib/libnds9.a(initSystem.o)
 .debug_rnglists
                0x00000000000022fe       0x8b /opt/devkitpro/libnds/lib/libnds9.a(interrupts.o)
 .debug_rnglists
                0x0000000000002389       0x19 /opt/devkitpro/libnds/lib/libnds9.a(libnds_exit.arm.o)
 .debug_rnglists
                0x00000000000023a2       0x89 /opt/devkitpro/libnds/lib/libnds9.a(card.o)
 .debug_rnglists
                0x000000000000242b      0x2a4 /opt/devkitpro/libnds/lib/libnds9.a(fifosystem.o)
 .debug_rnglists
                0x00000000000026cf       0x20 /opt/devkitpro/libnds/lib/libnds9.a(mpu_setup.o)
 .debug_rnglists
                0x00000000000026ef       0x19 /opt/devkitpro/libnds/lib/libnds9.a(IntrWait.o)
 .debug_rnglists
                0x0000000000002708       0x91 /opt/devkitpro/libnds/lib/libnds9.a(biosCalls.o)
 .debug_rnglists
                0x0000000000002799       0x3e /opt/devkitpro/libnds/lib/libnds9.a(video.o)
 .debug_rnglists
                0x00000000000027d7       0x49 /opt/devkitpro/libnds/lib/libnds9.a(system.o)
 .debug_rnglists
                0x0000000000002820       0x2b /opt/devkitpro/libnds/lib/libnds9.a(sd.twl.o)
 .debug_rnglists
                0x000000000000284b       0x25 /opt/devkitpro/libnds/lib/libnds9.a(dcache.o)

.debug_ranges   0x0000000000000000     0x1230
 .debug_ranges  0x0000000000000000      0x258 /opt/devkitpro/libnds/lib/libfilesystem.a(nitrofs.o)
 .debug_ranges  0x0000000000000258       0xc0 /opt/devkitpro/libnds/lib/libfat.a(libfat.o)
 .debug_ranges  0x0000000000000318      0x408 /opt/devkitpro/libnds/lib/libfat.a(fatfile.o)
 .debug_ranges  0x0000000000000720       0xc0 /opt/devkitpro/libnds/lib/libfat.a(cache.o)
 .debug_ranges  0x00000000000007e0      0x238 /opt/devkitpro/libnds/lib/libfat.a(fatdir.o)
 .debug_ranges  0x0000000000000a18      0x488 /opt/devkitpro/libnds/lib/libfat.a(directory.o)
 .debug_ranges  0x0000000000000ea0      0x2b8 /opt/devkitpro/libnds/lib/libfat.a(partition.o)
 .debug_ranges  0x0000000000001158       0x10 /opt/devkitpro/libnds/lib/libfat.a(lock.o)
 .debug_ranges  0x0000000000001168       0x20 /opt/devkitpro/libnds/lib/libfat.a(filetime.o)
 .debug_ranges  0x0000000000001188       0xa8 /opt/devkitpro/libnds/lib/libfat.a(file_allocation_table.o)

.debug_line_str
                0x0000000000000000      0x1e3
 .debug_line_str
                0x0000000000000000       0x6c /opt/devkitpro/libnds/lib/libnds9.a(dldi_stub.o)
                                         0xd8 (size before relaxing)
 .debug_line_str
                0x000000000000006c       0x6e /opt/devkitpro/libnds/lib/libnds9.a(mpu_setup.o)
                                         0xdc (size before relaxing)
 .debug_line_str
                0x00000000000000da        0xb /opt/devkitpro/libnds/lib/libnds9.a(IntrWait.o)
                                         0xda (size before relaxing)
 .debug_line_str
                0x00000000000000e5        0xc /opt/devkitpro/libnds/lib/libnds9.a(cpu_clock.o)
                                         0xdc (size before relaxing)
 .debug_line_str
                0x00000000000000f1       0x73 /opt/devkitpro/libnds/lib/libnds9.a(interruptDispatcher.o)
                                         0xe6 (size before relaxing)
 .debug_line_str
                0x0000000000000164        0xc /opt/devkitpro/libnds/lib/libnds9.a(biosCalls.o)
                                         0xd2 (size before relaxing)
 .debug_line_str
                0x0000000000000170        0xf /opt/devkitpro/libnds/lib/libnds9.a(swiSoftReset.o)
                                         0xd8 (size before relaxing)
 .debug_line_str
                0x000000000000017f       0x64 /opt/devkitpro/libnds/lib/libnds9.a(dcache.o)
                                         0xc8 (size before relaxing)
